 pendubot_simulate_1_8_5_2017_fuzzy_sfun

 Timestamp is 5910f099 (Tue May 09 01:26:33 2017)

 Preferred load address is 0000000180000000

 Start         Length     Name                   Class
 0001:00000000 0004a734H .text                   CODE
 0001:0004a740 00000092H .text$x                 CODE
 0002:00000000 000004a0H .idata$5                DATA
 0002:000004a0 00000008H .CRT$XCA                DATA
 0002:000004a8 00000008H .CRT$XCZ                DATA
 0002:000004b0 00000008H .CRT$XIA                DATA
 0002:000004b8 00000008H .CRT$XIAA               DATA
 0002:000004c0 00000008H .CRT$XIZ                DATA
 0002:000004d0 00004c1cH .rdata                  DATA
 0002:000050f0 00000008H .rtc$IAA                DATA
 0002:000050f8 00000008H .rtc$IZZ                DATA
 0002:00005100 00000008H .rtc$TAA                DATA
 0002:00005108 00000008H .rtc$TZZ                DATA
 0002:00005110 00004374H .xdata                  DATA
 0002:00009484 000000a0H .idata$2                DATA
 0002:00009524 00000014H .idata$3                DATA
 0002:00009538 000004a0H .idata$4                DATA
 0002:000099d8 00000ac0H .idata$6                DATA
 0002:0000a4a0 0000006dH .edata                  DATA
 0003:00000000 000051e8H .data                   DATA
 0003:00005200 000026d8H .bss                    DATA
 0004:00000000 00003600H .pdata                  DATA

  Address         Publics by Value              Rva+Base               Lib:Object

 0000:00000000       ___safe_se_handler_table   0000000000000000     <absolute>
 0000:00000000       ___safe_se_handler_count   0000000000000000     <absolute>
 0000:00000000       __ImageBase                0000000180000000     <linker-defined>
 0001:00000000       sf_c1_pendubot_simulate_1_8_5_2017_fuzzy_get_eml_resolved_functions_info 0000000180001000 f   c1_pendubot_simulate_1_8_5_2017_fuzzy.obj
 0001:00000b80       sf_c1_pendubot_simulate_1_8_5_2017_fuzzy_get_check_sum 0000000180001b80 f   c1_pendubot_simulate_1_8_5_2017_fuzzy.obj
 0001:00000c00       sf_c1_pendubot_simulate_1_8_5_2017_fuzzy_get_autoinheritance_info 0000000180001c00 f   c1_pendubot_simulate_1_8_5_2017_fuzzy.obj
 0001:00001b90       sf_internal_get_sim_state_c1_pendubot_simulate_1_8_5_2017_fuzzy 0000000180002b90 f   c1_pendubot_simulate_1_8_5_2017_fuzzy.obj
 0001:00001ef0       sf_internal_set_sim_state_c1_pendubot_simulate_1_8_5_2017_fuzzy 0000000180002ef0 f   c1_pendubot_simulate_1_8_5_2017_fuzzy.obj
 0001:000022f0       c1_pendubot_simulate_1_8_5_2017_fuzzy_method_dispatcher 00000001800032f0 f   c1_pendubot_simulate_1_8_5_2017_fuzzy.obj
 0001:00006700       sf_c2_pendubot_simulate_1_8_5_2017_fuzzy_get_eml_resolved_functions_info 0000000180007700 f   c2_pendubot_simulate_1_8_5_2017_fuzzy.obj
 0001:000072f0       sf_c2_pendubot_simulate_1_8_5_2017_fuzzy_get_check_sum 00000001800082f0 f   c2_pendubot_simulate_1_8_5_2017_fuzzy.obj
 0001:00007370       sf_c2_pendubot_simulate_1_8_5_2017_fuzzy_get_autoinheritance_info 0000000180008370 f   c2_pendubot_simulate_1_8_5_2017_fuzzy.obj
 0001:00007df0       sf_internal_get_sim_state_c2_pendubot_simulate_1_8_5_2017_fuzzy 0000000180008df0 f   c2_pendubot_simulate_1_8_5_2017_fuzzy.obj
 0001:00008200       sf_internal_set_sim_state_c2_pendubot_simulate_1_8_5_2017_fuzzy 0000000180009200 f   c2_pendubot_simulate_1_8_5_2017_fuzzy.obj
 0001:00008640       c2_pendubot_simulate_1_8_5_2017_fuzzy_method_dispatcher 0000000180009640 f   c2_pendubot_simulate_1_8_5_2017_fuzzy.obj
 0001:0000b7f0       sf_c3_pendubot_simulate_1_8_5_2017_fuzzy_get_eml_resolved_functions_info 000000018000c7f0 f   c3_pendubot_simulate_1_8_5_2017_fuzzy.obj
 0001:0000bd60       sf_c3_pendubot_simulate_1_8_5_2017_fuzzy_get_check_sum 000000018000cd60 f   c3_pendubot_simulate_1_8_5_2017_fuzzy.obj
 0001:0000bde0       sf_c3_pendubot_simulate_1_8_5_2017_fuzzy_get_autoinheritance_info 000000018000cde0 f   c3_pendubot_simulate_1_8_5_2017_fuzzy.obj
 0001:0000c350       sf_internal_get_sim_state_c3_pendubot_simulate_1_8_5_2017_fuzzy 000000018000d350 f   c3_pendubot_simulate_1_8_5_2017_fuzzy.obj
 0001:0000c6a0       sf_internal_set_sim_state_c3_pendubot_simulate_1_8_5_2017_fuzzy 000000018000d6a0 f   c3_pendubot_simulate_1_8_5_2017_fuzzy.obj
 0001:0000caa0       c3_pendubot_simulate_1_8_5_2017_fuzzy_method_dispatcher 000000018000daa0 f   c3_pendubot_simulate_1_8_5_2017_fuzzy.obj
 0001:0000e8e0       sf_c4_pendubot_simulate_1_8_5_2017_fuzzy_get_eml_resolved_functions_info 000000018000f8e0 f   c4_pendubot_simulate_1_8_5_2017_fuzzy.obj
 0001:0000f460       sf_c4_pendubot_simulate_1_8_5_2017_fuzzy_get_check_sum 0000000180010460 f   c4_pendubot_simulate_1_8_5_2017_fuzzy.obj
 0001:0000f4e0       sf_c4_pendubot_simulate_1_8_5_2017_fuzzy_get_autoinheritance_info 00000001800104e0 f   c4_pendubot_simulate_1_8_5_2017_fuzzy.obj
 0001:000105b0       sf_internal_get_sim_state_c4_pendubot_simulate_1_8_5_2017_fuzzy 00000001800115b0 f   c4_pendubot_simulate_1_8_5_2017_fuzzy.obj
 0001:00010900       sf_internal_set_sim_state_c4_pendubot_simulate_1_8_5_2017_fuzzy 0000000180011900 f   c4_pendubot_simulate_1_8_5_2017_fuzzy.obj
 0001:00010d00       c4_pendubot_simulate_1_8_5_2017_fuzzy_method_dispatcher 0000000180011d00 f   c4_pendubot_simulate_1_8_5_2017_fuzzy.obj
 0001:000156e0       sf_c5_pendubot_simulate_1_8_5_2017_fuzzy_get_eml_resolved_functions_info 00000001800166e0 f   c5_pendubot_simulate_1_8_5_2017_fuzzy.obj
 0001:00015760       sf_c5_pendubot_simulate_1_8_5_2017_fuzzy_get_check_sum 0000000180016760 f   c5_pendubot_simulate_1_8_5_2017_fuzzy.obj
 0001:000157e0       sf_c5_pendubot_simulate_1_8_5_2017_fuzzy_get_autoinheritance_info 00000001800167e0 f   c5_pendubot_simulate_1_8_5_2017_fuzzy.obj
 0001:00015c00       sf_internal_get_sim_state_c5_pendubot_simulate_1_8_5_2017_fuzzy 0000000180016c00 f   c5_pendubot_simulate_1_8_5_2017_fuzzy.obj
 0001:00015f50       sf_internal_set_sim_state_c5_pendubot_simulate_1_8_5_2017_fuzzy 0000000180016f50 f   c5_pendubot_simulate_1_8_5_2017_fuzzy.obj
 0001:00016350       c5_pendubot_simulate_1_8_5_2017_fuzzy_method_dispatcher 0000000180017350 f   c5_pendubot_simulate_1_8_5_2017_fuzzy.obj
 0001:00017e30       sf_process_check_sum_call  0000000180018e30 f   pendubot_simulate_1_8_5_2017_fuzzy_sfun_registry.obj
 0001:00017e80       sf_process_autoinheritance_call 0000000180018e80 f   pendubot_simulate_1_8_5_2017_fuzzy_sfun_registry.obj
 0001:00018020       sf_process_get_eml_resolved_functions_info_call 0000000180019020 f   pendubot_simulate_1_8_5_2017_fuzzy_sfun_registry.obj
 0001:000181a0       sf_mex_unlock_call         00000001800191a0 f   pendubot_simulate_1_8_5_2017_fuzzy_sfun_registry.obj
 0001:00018250       sf_machine_global_initializer_called 0000000180019250 f   pendubot_simulate_1_8_5_2017_fuzzy_sfun_registry.obj
 0001:00018280       sf_machine_global_method_dispatcher 0000000180019280 f   pendubot_simulate_1_8_5_2017_fuzzy_sfun_registry.obj
 0001:000182e0       sf_machine_global_terminator 00000001800192e0 f   pendubot_simulate_1_8_5_2017_fuzzy_sfun_registry.obj
 0001:00018320       sf_register_machine_exported_symbols 0000000180019320 f   pendubot_simulate_1_8_5_2017_fuzzy_sfun_registry.obj
 0001:00018340       callCustomFcn              0000000180019340 f   pendubot_simulate_1_8_5_2017_fuzzy_sfun_registry.obj
 0001:00018350       sf_machine_global_initializer 0000000180019350 f   pendubot_simulate_1_8_5_2017_fuzzy_sfun_registry.obj
 0001:000183c0       _ssSetStateAbsTol          00000001800193c0 f   pendubot_simulate_1_8_5_2017_fuzzy_sfun_registry.obj
 0001:000184a0       _ssGetAbsTol               00000001800194a0 f   pendubot_simulate_1_8_5_2017_fuzzy_sfun_registry.obj
 0001:00018510       _ssSetInputPortMatrixDimensions 0000000180019510 f   pendubot_simulate_1_8_5_2017_fuzzy_sfun_registry.obj
 0001:00018620       _ssSetOutputPortMatrixDimensions 0000000180019620 f   pendubot_simulate_1_8_5_2017_fuzzy_sfun_registry.obj
 0001:00018730       _ssSetInputPortVectorDimension 0000000180019730 f   pendubot_simulate_1_8_5_2017_fuzzy_sfun_registry.obj
 0001:00018800       _ssSetOutputPortVectorDimension 0000000180019800 f   pendubot_simulate_1_8_5_2017_fuzzy_sfun_registry.obj
 0001:000188d0       ssIsRunTimeParamTunable    00000001800198d0 f   pendubot_simulate_1_8_5_2017_fuzzy_sfun_registry.obj
 0001:00018940       ssGetSFuncBlockHandle      0000000180019940 f   pendubot_simulate_1_8_5_2017_fuzzy_sfun_registry.obj
 0001:000189b0       _ssGetCurrentInputPortWidth 00000001800199b0 f   pendubot_simulate_1_8_5_2017_fuzzy_sfun_registry.obj
 0001:00018ad0       _ssGetCurrentOutputPortWidth 0000000180019ad0 f   pendubot_simulate_1_8_5_2017_fuzzy_sfun_registry.obj
 0001:00018bf0       _ssGetCallSystemNumFcnCallDestinations 0000000180019bf0 f   pendubot_simulate_1_8_5_2017_fuzzy_sfun_registry.obj
 0001:00018c60       ssWarning                  0000000180019c60 f   pendubot_simulate_1_8_5_2017_fuzzy_sfun_registry.obj
 0001:00018d70       ssGetIsZeroCrossControlDisabled 0000000180019d70 f   pendubot_simulate_1_8_5_2017_fuzzy_sfun_registry.obj
 0001:00018de0       ssSetIsInputPortUsedForContZcSignal 0000000180019de0 f   pendubot_simulate_1_8_5_2017_fuzzy_sfun_registry.obj
 0001:00018e50       ssSetZcSignalIsZcElementDisc 0000000180019e50 f   pendubot_simulate_1_8_5_2017_fuzzy_sfun_registry.obj
 0001:00018f00       ssSetZcSignalName          0000000180019f00 f   pendubot_simulate_1_8_5_2017_fuzzy_sfun_registry.obj
 0001:00018f70       ssSetZcSignalWidth         0000000180019f70 f   pendubot_simulate_1_8_5_2017_fuzzy_sfun_registry.obj
 0001:00018fe0       ssSetZcSignalZcEventType   0000000180019fe0 f   pendubot_simulate_1_8_5_2017_fuzzy_sfun_registry.obj
 0001:00019050       ssSetZcSignalType          000000018001a050 f   pendubot_simulate_1_8_5_2017_fuzzy_sfun_registry.obj
 0001:000190c0       ssSetZcSignalZcTol         000000018001a0c0 f   pendubot_simulate_1_8_5_2017_fuzzy_sfun_registry.obj
 0001:00019130       ssSetZcSignalNeedsEventNotification 000000018001a130 f   pendubot_simulate_1_8_5_2017_fuzzy_sfun_registry.obj
 0001:000191a0       ssCreateAndAddZcSignalInfo 000000018001a1a0 f   pendubot_simulate_1_8_5_2017_fuzzy_sfun_registry.obj
 0001:00019210       ssCloneAndAddZcSignalInfo  000000018001a210 f   pendubot_simulate_1_8_5_2017_fuzzy_sfun_registry.obj
 0001:00019280       ssGetNumZcSignals          000000018001a280 f   pendubot_simulate_1_8_5_2017_fuzzy_sfun_registry.obj
 0001:000192f0       ssGetZcSignalVector        000000018001a2f0 f   pendubot_simulate_1_8_5_2017_fuzzy_sfun_registry.obj
 0001:00019360       ssGetZcSignalZcEvents      000000018001a360 f   pendubot_simulate_1_8_5_2017_fuzzy_sfun_registry.obj
 0001:000193d0       ssGetZcSignalName          000000018001a3d0 f   pendubot_simulate_1_8_5_2017_fuzzy_sfun_registry.obj
 0001:00019440       ssGetZcSignalWidth         000000018001a440 f   pendubot_simulate_1_8_5_2017_fuzzy_sfun_registry.obj
 0001:000194b0       ssGetZcSignalZcEventType   000000018001a4b0 f   pendubot_simulate_1_8_5_2017_fuzzy_sfun_registry.obj
 0001:00019520       ssGetZcSignalType          000000018001a520 f   pendubot_simulate_1_8_5_2017_fuzzy_sfun_registry.obj
 0001:00019590       ssGetZcSignalZcTol         000000018001a590 f   pendubot_simulate_1_8_5_2017_fuzzy_sfun_registry.obj
 0001:00019610       ssGetZcSignalNeedsEventNotification 000000018001a610 f   pendubot_simulate_1_8_5_2017_fuzzy_sfun_registry.obj
 0001:00019680       ssGetZcSignalIsZcElementDisc 000000018001a680 f   pendubot_simulate_1_8_5_2017_fuzzy_sfun_registry.obj
 0001:00019720       ssGetIsInputPortElementContinuous 000000018001a720 f   pendubot_simulate_1_8_5_2017_fuzzy_sfun_registry.obj
 0001:000197c0       _ssGetInputPortSignalPtrsFcn 000000018001a7c0 f   pendubot_simulate_1_8_5_2017_fuzzy_sfun_registry.obj
 0001:00019a80       _ssGetInputPortSignalFcn   000000018001aa80 f   pendubot_simulate_1_8_5_2017_fuzzy_sfun_registry.obj
 0001:00019ca0       _ssSetInputPortDirectFeedThroughFcn 000000018001aca0 f   pendubot_simulate_1_8_5_2017_fuzzy_sfun_registry.obj
 0001:00019e00       _ssSetInputPortReusableFcn 000000018001ae00 f   pendubot_simulate_1_8_5_2017_fuzzy_sfun_registry.obj
 0001:00019ef0       _ssSetOutputPortReusableFcn 000000018001aef0 f   pendubot_simulate_1_8_5_2017_fuzzy_sfun_registry.obj
 0001:00019fd0       ssGetDTypeIdFromMxArray    000000018001afd0 f   pendubot_simulate_1_8_5_2017_fuzzy_sfun_registry.obj
 0001:0001a0f0       ssWriteRTWStr              000000018001b0f0 f   pendubot_simulate_1_8_5_2017_fuzzy_sfun_registry.obj
 0001:0001a150       ssWriteRTWMxVectParam      000000018001b150 f   pendubot_simulate_1_8_5_2017_fuzzy_sfun_registry.obj
 0001:0001a1b0       ssWriteRTWMx2dMatParam     000000018001b1b0 f   pendubot_simulate_1_8_5_2017_fuzzy_sfun_registry.obj
 0001:0001a230       ssWriteRTWNameValuePair    000000018001b230 f   pendubot_simulate_1_8_5_2017_fuzzy_sfun_registry.obj
 0001:0001a720       ssWriteRTWParameters       000000018001b720 f   pendubot_simulate_1_8_5_2017_fuzzy_sfun_registry.obj
 0001:0001ad20       ssWriteRTWParamSettings    000000018001bd20 f   pendubot_simulate_1_8_5_2017_fuzzy_sfun_registry.obj
 0001:0001b3f0       ssWriteRTWWorkVect         000000018001c3f0 f   pendubot_simulate_1_8_5_2017_fuzzy_sfun_registry.obj
 0001:0001b8f0       mexFunction                000000018001c8f0 f   pendubot_simulate_1_8_5_2017_fuzzy_sfun_registry.obj
 0001:0001d5b0       ProcessMexSfunctionEveryCall 000000018001e5b0 f   pendubot_simulate_1_8_5_2017_fuzzy_sfun_registry.obj
 0001:0001d720       pendubot_simulate_1_8_5_2017_fuzzy_initializer 000000018001e720 f   pendubot_simulate_1_8_5_2017_fuzzy_sfun.obj
 0001:0001d730       pendubot_simulate_1_8_5_2017_fuzzy_terminator 000000018001e730 f   pendubot_simulate_1_8_5_2017_fuzzy_sfun.obj
 0001:0001d740       sf_pendubot_simulate_1_8_5_2017_fuzzy_method_dispatcher 000000018001e740 f   pendubot_simulate_1_8_5_2017_fuzzy_sfun.obj
 0001:0001d810       sf_pendubot_simulate_1_8_5_2017_fuzzy_process_check_sum_call 000000018001e810 f   pendubot_simulate_1_8_5_2017_fuzzy_sfun.obj
 0001:0001dc70       sf_pendubot_simulate_1_8_5_2017_fuzzy_autoinheritance_info 000000018001ec70 f   pendubot_simulate_1_8_5_2017_fuzzy_sfun.obj
 0001:0001df20       sf_pendubot_simulate_1_8_5_2017_fuzzy_get_eml_resolved_functions_info 000000018001ef20 f   pendubot_simulate_1_8_5_2017_fuzzy_sfun.obj
 0001:0001e160       pendubot_simulate_1_8_5_2017_fuzzy_debug_initialize 000000018001f160 f   pendubot_simulate_1_8_5_2017_fuzzy_sfun.obj
 0001:0001e1d0       pendubot_simulate_1_8_5_2017_fuzzy_register_exported_symbols 000000018001f1d0 f   pendubot_simulate_1_8_5_2017_fuzzy_sfun.obj
 0001:0001e1e0       load_pendubot_simulate_1_8_5_2017_fuzzy_optimization_info 000000018001f1e0 f   pendubot_simulate_1_8_5_2017_fuzzy_sfun.obj
 0001:0001e230       unload_pendubot_simulate_1_8_5_2017_fuzzy_optimization_info 000000018001f230 f   pendubot_simulate_1_8_5_2017_fuzzy_sfun.obj
 0001:0001e350       sf_mex_mx_is_numeric       000000018001f350 f   sfc_mex:sfc_mex.obj
 0001:0001e390       strcmp_ignore_ws           000000018001f390 f   sfc_mex:sfc_mex.obj
 0001:0001e4d0       sf_mex_duplicatearraysafe  000000018001f4d0 f   sfc_mex:sfc_mex.obj
 0001:0001e630       sf_set_error_debugger_context_message_fcn 000000018001f630 f   sfc_mex:sfc_mex.obj
 0001:0001e640       sf_set_debugger_matlab_error_fcn 000000018001f640 f   sfc_mex:sfc_mex.obj
 0001:0001e670       sf_set_error_prefix_string 000000018001f670 f   sfc_mex:sfc_mex.obj
 0001:0001e6a0       sf_get_error_prefix_string 000000018001f6a0 f   sfc_mex:sfc_mex.obj
 0001:0001e6b0       sf_mex_enter_parallel_region 000000018001f6b0 f   sfc_mex:sfc_mex.obj
 0001:0001e6c0       sf_mex_exit_parallel_region 000000018001f6c0 f   sfc_mex:sfc_mex.obj
 0001:0001e6d0       sf_get_current_jmp_buf_ptr 000000018001f6d0 f   sfc_mex:sfc_mex.obj
 0001:0001e6e0       sf_set_current_jmp_buf_ptr 000000018001f6e0 f   sfc_mex:sfc_mex.obj
 0001:0001e6f0       sf_mex_set_halt_simulation 000000018001f6f0 f   sfc_mex:sfc_mex.obj
 0001:0001e700       sf_mex_get_halt_simulation 000000018001f700 f   sfc_mex:sfc_mex.obj
 0001:0001e710       sf_mex_clear_error_message 000000018001f710 f   sfc_mex:sfc_mex.obj
 0001:0001e730       sf_mex_get_error_message_for_read 000000018001f730 f   sfc_mex:sfc_mex.obj
 0001:0001e740       sf_mex_get_error_message_buffer_length 000000018001f740 f   sfc_mex:sfc_mex.obj
 0001:0001e820       sf_mex_warning_message     000000018001f820 f   sfc_mex:sfc_mex.obj
 0001:0001e890       sf_mex_v_errbuf_createf    000000018001f890 f   sfc_mex:sfc_mex.obj
 0001:0001e8a0       sf_mex_errbuf_createf      000000018001f8a0 f   sfc_mex:sfc_mex.obj
 0001:0001e8d0       sf_mex_v_errbuf_catf       000000018001f8d0 f   sfc_mex:sfc_mex.obj
 0001:0001e910       sf_mex_errbuf_catf         000000018001f910 f   sfc_mex:sfc_mex.obj
 0001:0001e960       sf_mex_errbuf_copy         000000018001f960 f   sfc_mex:sfc_mex.obj
 0001:0001e970       sf_mex_errbuf_clear        000000018001f970 f   sfc_mex:sfc_mex.obj
 0001:0001e980       sf_mex_errbuf_isempty      000000018001f980 f   sfc_mex:sfc_mex.obj
 0001:0001ea90       sf_mex_set_error_status    000000018001fa90 f   sfc_mex:sfc_mex.obj
 0001:0001eae0       sf_mex_error_direct_call   000000018001fae0 f   sfc_mex:sfc_mex.obj
 0001:0001eb00       sf_mex_error_message_no_long_jump 000000018001fb00 f   sfc_mex:sfc_mex.obj
 0001:0001eb20       sf_mex_long_jump_on_error  000000018001fb20 f   sfc_mex:sfc_mex.obj
 0001:0001eb50       sf_mex_call_matlab         000000018001fb50 f   sfc_mex:sfc_mex.obj
 0001:0001ec70       sf_mex_check_builtin       000000018001fc70 f   sfc_mex:sfc_mex.obj
 0001:0001ed10       sf_mex_check_builtin_vs    000000018001fd10 f   sfc_mex:sfc_mex.obj
 0001:0001edd0       sf_mex_check_enum          000000018001fdd0 f   sfc_mex:sfc_mex.obj
 0001:0001ee50       sf_mex_create_enum         000000018001fe50 f   sfc_mex:sfc_mex.obj
 0001:0001eec0       sf_mex_get_enum_element    000000018001fec0 f   sfc_mex:sfc_mex.obj
 0001:0001eed0       sf_mex_createcellarray     000000018001fed0 f   sfc_mex:sfc_mex.obj
 0001:0001eee0       sf_mex_setcell             000000018001fee0 f   sfc_mex:sfc_mex.obj
 0001:0001eef0       sf_mex_getcell             000000018001fef0 f   sfc_mex:sfc_mex.obj
 0001:0001ef00       sf_mex_dup                 000000018001ff00 f   sfc_mex:sfc_mex.obj
 0001:0001ef20       sf_mex_assign              000000018001ff20 f   sfc_mex:sfc_mex.obj
 0001:0001efa0       sf_mex_destroy             000000018001ffa0 f   sfc_mex:sfc_mex.obj
 0001:0001efd0       mx_array_has_fi_type       000000018001ffd0 f   sfc_mex:sfc_mex.obj
 0001:0001f000       sf_mex_convert_from_fi     0000000180020000 f   sfc_mex:sfc_mex.obj
 0001:0001f130       sf_mex_convert_to_double   0000000180020130 f   sfc_mex:sfc_mex.obj
 0001:0001f250       sf_mex_import_fi_vs        0000000180020250 f   sfc_mex:sfc_mex.obj
 0001:0001f410       sf_matrix_matrix_index_ok  0000000180020410 f   sfc_mex:sfc_mex.obj
 0001:0001f4a0       sf_vector_vector_index_ok  00000001800204a0 f   sfc_mex:sfc_mex.obj
 0001:0001f4d0       ssGetCurrentInputPortDimensions_wrapper 00000001800204d0 f   sfc_mex:sfc_mex.obj
 0001:0001f4f0       ssGetCurrentOutputPortDimensions_wrapper 00000001800204f0 f   sfc_mex:sfc_mex.obj
 0001:0001f510       sf_mex_emlrt_context_is_debug_mode 0000000180020510 f   sfc_mex:sfc_mex.obj
 0001:0001f520       sf_mex_emlrt_context_set_debug_mode 0000000180020520 f   sfc_mex:sfc_mex.obj
 0001:0001f530       sf_mex_emlrtNameCapturePostProcessR2012a 0000000180020530 f   sfc_mex:sfc_mex.obj
 0001:0001f5a0       sf_clear_error_manager_info 00000001800205a0 f   sfc_mex:sfc_mex.obj
 0001:0001f600       sf_mex_stop_simulation_abruptly_wo_error 0000000180020600 f   sfc_mex:sfc_mex.obj
 0001:0001f640       sf_mex_error_message       0000000180020640 f   sfc_mex:sfc_mex.obj
 0001:0001f6a0       sf_react_to_error_in_matlab_call 00000001800206a0 f   sfc_mex:sfc_mex.obj
 0001:0001f6d0       sf_mex_addfield            00000001800206d0 f   sfc_mex:sfc_mex.obj
 0001:0001f770       sf_mex_getfield            0000000180020770 f   sfc_mex:sfc_mex.obj
 0001:0001fa70       sf_mex_check_class         0000000180020a70 f   sfc_mex:sfc_mex.obj
 0001:0001fb10       sf_mex_is_real             0000000180020b10 f   sfc_mex:sfc_mex.obj
 0001:0001ff80       sf_mex_decode_encoded_mx_struct_array 0000000180020f80 f   sfc_mex:sfc_mex.obj
 0001:00020260       sf_mex_lw_bounds_check     0000000180021260 f   sfc_mex:sfc_mex.obj
 0001:00020290       sf_mex_lw_size_eq_check_1d 0000000180021290 f   sfc_mex:sfc_mex.obj
 0001:000202b0       sf_mex_lw_size_eq_check_nd 00000001800212b0 f   sfc_mex:sfc_mex.obj
 0001:00020490       sf_mex_lw_dim_size_eq_check 0000000180021490 f   sfc_mex:sfc_mex.obj
 0001:000204c0       sf_mex_lw_dim_size_geq_check 00000001800214c0 f   sfc_mex:sfc_mex.obj
 0001:000204f0       sf_mex_lw_sub_assign_size_check_nd 00000001800214f0 f   sfc_mex:sfc_mex.obj
 0001:00020720       sf_mex_lw_runtime_error_msgid 0000000180021720 f   sfc_mex:sfc_mex.obj
 0001:00020810       sf_mex_lw_matrix_matrix_index_check 0000000180021810 f   sfc_mex:sfc_mex.obj
 0001:00020830       sf_mex_lw_vector_vector_index_check 0000000180021830 f   sfc_mex:sfc_mex.obj
 0001:00020870       sf_mex_lw_for_loop_vector_check 0000000180021870 f   sfc_mex:sfc_mex.obj
 0001:00020900       sf_mex_lw_non_negative_check 0000000180021900 f   sfc_mex:sfc_mex.obj
 0001:00020940       sf_mex_overflow_error      0000000180021940 f   sfc_mex:sfc_mex.obj
 0001:00020950       sf_mex_dividebyzero_error  0000000180021950 f   sfc_mex:sfc_mex.obj
 0001:00020960       sf_mex_unsafe_enum_error   0000000180021960 f   sfc_mex:sfc_mex.obj
 0001:00020970       sf_emlrtErrHandler         0000000180021970 f   sfc_mex:sfc_mex.obj
 0001:00020a50       sf_mex_size_one_check      0000000180021a50 f   sfc_mex:sfc_mex.obj
 0001:00020a70       sf_mex_printf              0000000180021a70 f   sfc_mex:sfc_mex.obj
 0001:00020c40       sf_mex_check_size          0000000180021c40 f   sfc_mex:sfc_mex.obj
 0001:00020f10       sf_mex_check_struct        0000000180021f10 f   sfc_mex:sfc_mex.obj
 0001:00021170       sf_mex_check_struct_vs     0000000180022170 f   sfc_mex:sfc_mex.obj
 0001:00021200       sf_mex_check_fi            0000000180022200 f   sfc_mex:sfc_mex.obj
 0001:00021300       sf_mex_check_fi_vs         0000000180022300 f   sfc_mex:sfc_mex.obj
 0001:000213a0       sf_echo_expression         00000001800223a0 f   sfc_mex:sfc_mex.obj
 0001:00021400       sf_assertion_failed        0000000180022400 f   sfc_mex:sfc_mex.obj
 0001:000216e0       sf_mex_evalin              00000001800226e0 f   sfc_mex:sfc_mex.obj
 0001:00021950       sf_mex_export              0000000180022950 f   sfc_mex:sfc_mex.obj
 0001:00021a10       sf_mex_get_ml_var_no_error 0000000180022a10 f   sfc_mex:sfc_mex.obj
 0001:00021bb0       sf_mex_get_ml_var          0000000180022bb0 f   sfc_mex:sfc_mex.obj
 0001:00022050       ml_set_element_value_in_array 0000000180023050 f   sfc_mex:sfc_mex.obj
 0001:00023720       sf_mex_call_impl           0000000180024720 f   sfc_mex:sfc_mex.obj
 0001:00023c50       sf_mex_call_debug          0000000180024c50 f   sfc_mex:sfc_mex.obj
 0001:00023c80       sf_mex_call                0000000180024c80 f   sfc_mex:sfc_mex.obj
 0001:000242d0       sf_mex_createstruct        00000001800252d0 f   sfc_mex:sfc_mex.obj
 0001:000243c0       sf_mex_createstructarray   00000001800253c0 f   sfc_mex:sfc_mex.obj
 0001:00024440       sf_mex_get_mx_datatype_from_sf_datatype 0000000180025440 f   sfc_mex:sfc_mex.obj
 0001:00024750       sf_mex_ml_var_sub          0000000180025750 f   sfc_mex:sfc_mex.obj
 0001:00024920       sf_mex_ml_var_subsasgn     0000000180025920 f   sfc_mex:sfc_mex.obj
 0001:00024d10       sf_mex_sub                 0000000180025d10 f   sfc_mex:sfc_mex.obj
 0001:00024f10       sf_mex_subsasgn            0000000180025f10 f   sfc_mex:sfc_mex.obj
 0001:000253f0       sf_mex_create              00000001800263f0 f   sfc_mex:sfc_mex.obj
 0001:00025e40       sf_mex_import_named        0000000180026e40 f   sfc_mex:sfc_mex.obj
 0001:00025ea0       sf_mex_import              0000000180026ea0 f   sfc_mex:sfc_mex.obj
 0001:00025ef0       sf_mex_import_vs           0000000180026ef0 f   sfc_mex:sfc_mex.obj
 0001:00026000       sf_mex_lower_fixpt_mx_array 0000000180027000 f   sfc_mex:sfc_mex.obj
 0001:000262f0       sf_send_message_wrapper    00000001800272f0 f   sfc_mex:sfc_sf.obj
 0001:00026320       sf_receive_message_wrapper 0000000180027320 f   sfc_mex:sfc_sf.obj
 0001:00026360       sf_check_out_message_wrapper 0000000180027360 f   sfc_mex:sfc_sf.obj
 0001:000263a0       sf_check_in_message_wrapper 00000001800273a0 f   sfc_mex:sfc_sf.obj
 0001:000263e0       sf_no_message_wrapper      00000001800273e0 f   sfc_mex:sfc_sf.obj
 0001:00026770       sim_mode_is_rtw_gen        0000000180027770 f   sfc_mex:sfc_sf.obj
 0001:000267a0       sim_mode_is_external       00000001800277a0 f   sfc_mex:sfc_sf.obj
 0001:000267b0       sim_mode_is_modelref_sim   00000001800277b0 f   sfc_mex:sfc_sf.obj
 0001:000267d0       mdlInitializeSizes         00000001800277d0 f   sfc_mex:sfc_sf.obj
 0001:000267f0       mdlInitializeSampleTimes   00000001800277f0 f   sfc_mex:sfc_sf.obj
 0001:00026830       mdlZeroCrossings           0000000180027830 f   sfc_mex:sfc_sf.obj
 0001:00026910       mdlDerivatives             0000000180027910 f   sfc_mex:sfc_sf.obj
 0001:000269c0       mdl_initialize_conditions_processing 00000001800279c0 f   sfc_mex:sfc_sf.obj
 0001:000269f0       mdlInitializeConditions    00000001800279f0 f   sfc_mex:sfc_sf.obj
 0001:00026ab0       mdlGetSimState             0000000180027ab0 f   sfc_mex:sfc_sf.obj
 0001:00026ac0       mdlSetSimState             0000000180027ac0 f   sfc_mex:sfc_sf.obj
 0001:00026ad0       mdl_ext_mode_exec_processing 0000000180027ad0 f   sfc_mex:sfc_sf.obj
 0001:00026af0       mdlExtModeExec             0000000180027af0 f   sfc_mex:sfc_sf.obj
 0001:00026c80       mdlTerminate               0000000180027c80 f   sfc_mex:sfc_sf.obj
 0001:00026cf0       mdlRTW                     0000000180027cf0 f   sfc_mex:sfc_sf.obj
 0001:00026d20       mdlSetWorkWidths           0000000180027d20 f   sfc_mex:sfc_sf.obj
 0001:00026d30       mdlProcessParameters       0000000180027d30 f   sfc_mex:sfc_sf.obj
 0001:00026d40       mdl_start_processing       0000000180027d40 f   sfc_mex:sfc_sf.obj
 0001:00026da0       mdlStart                   0000000180027da0 f   sfc_mex:sfc_sf.obj
 0001:00026eb0       mdlEnable                  0000000180027eb0 f   sfc_mex:sfc_sf.obj
 0001:00026f80       mdlDisable                 0000000180027f80 f   sfc_mex:sfc_sf.obj
 0001:00027030       sf_get_chart_instance_ptr  0000000180028030 f   sfc_mex:sfc_sf.obj
 0001:00027050       sf_load_rtw_optimization_info 0000000180028050 f   sfc_mex:sfc_sf.obj
 0001:00027120       sf_rtw_info_uint_prop      0000000180028120 f   sfc_mex:sfc_sf.obj
 0001:00027260       sf_is_chart_inlinable      0000000180028260 f   sfc_mex:sfc_sf.obj
 0001:00027280       sf_mark_output_events_with_multiple_callers 0000000180028280 f   sfc_mex:sfc_sf.obj
 0001:00027410       sf_mark_chart_reusable_outputs 0000000180028410 f   sfc_mex:sfc_sf.obj
 0001:00027670       sf_mark_chart_expressionable_inputs 0000000180028670 f   sfc_mex:sfc_sf.obj
 0001:000278d0       sf_get_subchart_simstruct  00000001800288d0 f   sfc_mex:sfc_sf.obj
 0001:00027920       sf_get_fixpt_data_type_id  0000000180028920 f   sfc_mex:sfc_sf.obj
 0001:00027960       sf_get_enum_data_type_id   0000000180028960 f   sfc_mex:sfc_sf.obj
 0001:000279a0       sf_get_param_data_type_id  00000001800289a0 f   sfc_mex:sfc_sf.obj
 0001:000279d0       sf_mex_listen_for_ctrl_c_force 00000001800289d0 f   sfc_mex:sfc_sf.obj
 0001:00027ae0       sf_mex_draw_now            0000000180028ae0 f   sfc_mex:sfc_sf.obj
 0001:00027b20       sf_mex_set_debugger_sim_status_listener_fcn 0000000180028b20 f   sfc_mex:sfc_sf.obj
 0001:00027b30       sf_mex_listen_for_ctrl_c   0000000180028b30 f   sfc_mex:sfc_sf.obj
 0001:00027bc0       sf_mex_get_sfun_param      0000000180028bc0 f   sfc_mex:sfc_sf.obj
 0001:00027c10       sf_get_runtime_param_data  0000000180028c10 f   sfc_mex:sfc_sf.obj
 0001:00027c50       sf_call_output_fcn_call    0000000180028c50 f   sfc_mex:sfc_sf.obj
 0001:00027d90       sf_call_output_fcn_enable  0000000180028d90 f   sfc_mex:sfc_sf.obj
 0001:00027e20       sf_call_output_fcn_disable 0000000180028e20 f   sfc_mex:sfc_sf.obj
 0001:00027eb0       sf_clear_rtw_identifier    0000000180028eb0 f   sfc_mex:sfc_sf.obj
 0001:000286a0       sf_set_encoded_dwork_info  00000001800296a0 f   sfc_mex:sfc_sf.obj
 0001:000286f0       sf_get_dwork_info_from_mat_file 00000001800296f0 f   sfc_mex:sfc_sf.obj
 0001:000288b0       sf_set_rtw_dwork_info      00000001800298b0 f   sfc_mex:sfc_sf.obj
 0001:00028a20       mdlOutputs                 0000000180029a20 f   sfc_mex:sfc_sf.obj
 0001:00028bc0       sf_debug_disp              0000000180029bc0 f   sfc_debug:sfcdebug.obj
 0001:00028e20       sf_debug_data_runtime_size_mismatch_error_check 0000000180029e20 f   sfc_debug:sfcdebug.obj
 0001:00028ec0       sf_debug_try_loading_machine 0000000180029ec0 f   sfc_debug:sfcdebug.obj
 0001:00028fc0       sf_debug_reset_current_state_configuration 0000000180029fc0 f   sfc_debug:sfcdebug.obj
 0001:00029050       sf_debug_store_current_state_configuration 000000018002a050 f   sfc_debug:sfcdebug.obj
 0001:000290e0       sf_debug_restore_previous_state_configuration 000000018002a0e0 f   sfc_debug:sfcdebug.obj
 0001:00029170       sf_debug_restore_previous_state_configuration2 000000018002a170 f   sfc_debug:sfcdebug.obj
 0001:00029200       sf_debug_get_event_scope   000000018002a200 f   sfc_debug:sfcdebug.obj
 0001:00029370       use_debugger_step_animation 000000018002a370 f   sfc_debug:sfcdebug.obj
 0001:00029390       sf_debug_get_script_id     000000018002a390 f   sfc_debug:sfcdebug.obj
 0001:00029420       sf_debug_set_script_translation 000000018002a420 f   sfc_debug:sfcdebug.obj
 0001:000295a0       sf_debug_extract_message_post_receive_info 000000018002a5a0 f   sfc_debug:sfcdebug.obj
 0001:000296a0       sf_debug_get_current_machine_id 000000018002a6a0 f   sfc_debug:sfcdebug.obj
 0001:000296c0       sf_debug_get_current_optional_integer 000000018002a6c0 f   sfc_debug:sfcdebug.obj
 0001:000296d0       sf_debug_get_current_machine_number 000000018002a6d0 f   sfc_debug:sfcdebug.obj
 0001:000296f0       sf_debug_get_current_machine_name 000000018002a6f0 f   sfc_debug:sfcdebug.obj
 0001:00029710       sf_debug_get_current_chart_id 000000018002a710 f   sfc_debug:sfcdebug.obj
 0001:00029760       sf_debug_get_current_chart_number 000000018002a760 f   sfc_debug:sfcdebug.obj
 0001:00029770       sf_debug_get_current_instance_number 000000018002a770 f   sfc_debug:sfcdebug.obj
 0001:00029780       sf_debug_get_current_is_minor_time_step 000000018002a780 f   sfc_debug:sfcdebug.obj
 0001:00029800       sf_debug_get_current_object_type 000000018002a800 f   sfc_debug:sfcdebug.obj
 0001:00029810       sf_debug_get_current_instance_handle 000000018002a810 f   sfc_debug:sfcdebug.obj
 0001:00029870       sf_debug_get_current_event_type 000000018002a870 f   sfc_debug:sfcdebug.obj
 0001:00029880       sf_debug_get_current_object_id 000000018002a880 f   sfc_debug:sfcdebug.obj
 0001:000298c0       sf_debug_get_current_active_event_type 000000018002a8c0 f   sfc_debug:sfcdebug.obj
 0001:000298d0       sf_debug_get_current_active_event_id 000000018002a8d0 f   sfc_debug:sfcdebug.obj
 0001:00029910       sf_debug_get_current_tag_type 000000018002a910 f   sfc_debug:sfcdebug.obj
 0001:00029920       sf_debug_get_current_simulation_time 000000018002a920 f   sfc_debug:sfcdebug.obj
 0001:00029930       sf_debug_get_current_coverage_percentage 000000018002a930 f   sfc_debug:sfcdebug.obj
 0001:00029940       sf_debug_current_statement_context 000000018002a940 f   sfc_debug:sfcdebug.obj
 0001:000299d0       sf_debug_get_current_statement_info 000000018002a9d0 f   sfc_debug:sfcdebug.obj
 0001:00029b50       sf_debug_terminate_instance 000000018002ab50 f   sfc_debug:sfcdebug.obj
 0001:00029e90       sf_debug_assertion_failed  000000018002ae90 f   sfc_debug:sfcdebug.obj
 0001:0002a0f0       sf_debug_set_number_of_data_with_change_event_for_machine 000000018002b0f0 f   sfc_debug:sfcdebug.obj
 0001:0002a130       sf_debug_set_machine_event_thresholds 000000018002b130 f   sfc_debug:sfcdebug.obj
 0001:0002a150       sf_debug_set_machine_event_scope 000000018002b150 f   sfc_debug:sfcdebug.obj
 0001:0002a190       sf_debug_set_machine_data_thresholds 000000018002b190 f   sfc_debug:sfcdebug.obj
 0001:0002a1d0       sf_debug_set_machine_data_scope 000000018002b1d0 f   sfc_debug:sfcdebug.obj
 0001:0002a260       sf_debug_set_machine_data_name 000000018002b260 f   sfc_debug:sfcdebug.obj
 0001:0002a300       sf_debug_set_machine_data_size 000000018002b300 f   sfc_debug:sfcdebug.obj
 0001:0002a440       sf_debug_set_machine_data_type 000000018002b440 f   sfc_debug:sfcdebug.obj
 0001:0002a5b0       sf_debug_get_chart_data_number 000000018002b5b0 f   sfc_debug:sfcdebug.obj
 0001:0002a5d0       sf_debug_get_chart_event_number 000000018002b5d0 f   sfc_debug:sfcdebug.obj
 0001:0002a5f0       sf_debug_set_chart_state_info 000000018002b5f0 f   sfc_debug:sfcdebug.obj
 0001:0002a670       sf_debug_set_chart_decomposition 000000018002b670 f   sfc_debug:sfcdebug.obj
 0001:0002a6e0       sf_debug_set_chart_substate_count 000000018002b6e0 f   sfc_debug:sfcdebug.obj
 0001:0002a7c0       sf_debug_set_chart_substate_index 000000018002b7c0 f   sfc_debug:sfcdebug.obj
 0001:0002a830       sf_debug_set_chart_state_substate_count 000000018002b830 f   sfc_debug:sfcdebug.obj
 0001:0002a940       sf_debug_set_chart_state_substate_index 000000018002b940 f   sfc_debug:sfcdebug.obj
 0001:0002a9c0       sf_debug_set_number_of_data_with_change_event_for_chart 000000018002b9c0 f   sfc_debug:sfcdebug.obj
 0001:0002aa40       sf_debug_set_number_of_states_with_entry_event_for_chart 000000018002ba40 f   sfc_debug:sfcdebug.obj
 0001:0002aab0       sf_debug_set_number_of_states_with_exit_event_for_chart 000000018002bab0 f   sfc_debug:sfcdebug.obj
 0001:0002ab20       sf_debug_set_chart_disable_implicit_casting 000000018002bb20 f   sfc_debug:sfcdebug.obj
 0001:0002ab90       sf_debug_set_chart_event_thresholds 000000018002bb90 f   sfc_debug:sfcdebug.obj
 0001:0002ac00       sf_debug_set_chart_data_compiled_props 000000018002bc00 f   sfc_debug:sfcdebug.obj
 0001:0002af50       sf_debug_set_chart_data_props 000000018002bf50 f   sfc_debug:sfcdebug.obj
 0001:0002b270       sf_debug_check_fi_license  000000018002c270 f   sfc_debug:sfcdebug.obj
 0001:0002b460       sf_debug_symbol_scope_push 000000018002c460 f   sfc_debug:sfcdebug.obj
 0001:0002b4a0       sf_debug_symbol_scope_push_eml 000000018002c4a0 f   sfc_debug:sfcdebug.obj
 0001:0002b4f0       sf_debug_symbol_scope_pop  000000018002c4f0 f   sfc_debug:sfcdebug.obj
 0001:0002b530       sf_debug_symbol_scope_add_importable 000000018002c530 f   sfc_debug:sfcdebug.obj
 0001:0002b5b0       sf_debug_symbol_scope_add  000000018002c5b0 f   sfc_debug:sfcdebug.obj
 0001:0002b630       sf_debug_symbol_scope_add_dyn_importable 000000018002c630 f   sfc_debug:sfcdebug.obj
 0001:0002b6f0       sf_debug_symbol_scope_add_dyn 000000018002c6f0 f   sfc_debug:sfcdebug.obj
 0001:0002b720       sf_debug_symbol_scope_add_eml_importable 000000018002c720 f   sfc_debug:sfcdebug.obj
 0001:0002b760       sf_debug_symbol_scope_add_eml 000000018002c760 f   sfc_debug:sfcdebug.obj
 0001:0002b7a0       sf_debug_symbol_scope_add_eml_dyn_importable 000000018002c7a0 f   sfc_debug:sfcdebug.obj
 0001:0002b810       sf_debug_symbol_scope_add_eml_dyn 000000018002c810 f   sfc_debug:sfcdebug.obj
 0001:0002b870       sf_debug_symbol_switch     000000018002c870 f   sfc_debug:sfcdebug.obj
 0001:0002b890       sf_debug_symbol_scope_add_verbose 000000018002c890 f   sfc_debug:sfcdebug.obj
 0001:0002b960       sf_debug_set_machine_data_value_ptr 000000018002c960 f   sfc_debug:sfcdebug.obj
 0001:0002b9a0       sf_debug_set_instance_data_value_ptr 000000018002c9a0 f   sfc_debug:sfcdebug.obj
 0001:0002ba60       sf_debug_unset_instance_data_value_ptr 000000018002ca60 f   sfc_debug:sfcdebug.obj
 0001:0002bb10       sf_debug_set_chart_event_scope 000000018002cb10 f   sfc_debug:sfcdebug.obj
 0001:0002bb90       sf_debug_set_chart_transition_coverage_maps 000000018002cb90 f   sfc_debug:sfcdebug.obj
 0001:0002bca0       sf_debug_set_chart_state_coverage_maps 000000018002cca0 f   sfc_debug:sfcdebug.obj
 0001:0002bd80       sf_debug_set_instance_transition_coverage_weights 000000018002cd80 f   sfc_debug:sfcdebug.obj
 0001:0002be20       sf_debug_set_instance_state_coverage_weights 000000018002ce20 f   sfc_debug:sfcdebug.obj
 0001:0002c070       sf_debug_unload_machine    000000018002d070 f   sfc_debug:sfcdebug.obj
 0001:0002c0c0       sf_debug_load_machine      000000018002d0c0 f   sfc_debug:sfcdebug.obj
 0001:0002c1c0       sf_debug_set_active_instance_in_data_dictionary 000000018002d1c0 f   sfc_debug:sfcdebug.obj
 0001:0002c3a0       sf_debug_set_active_instance 000000018002d3a0 f   sfc_debug:sfcdebug.obj
 0001:0002c500       sf_debug_chart_visiblity_change 000000018002d500 f   sfc_debug:sfcdebug.obj
 0001:0002c600       sf_debug_select_chart      000000018002d600 f   sfc_debug:sfcdebug.obj
 0001:0002c770       sf_debug_set_instance_cv_ids 000000018002d770 f   sfc_debug:sfcdebug.obj
 0001:0002ca80       sf_debug_select_charts     000000018002da80 f   sfc_debug:sfcdebug.obj
 0001:0002cc10       sf_debug_initialized       000000018002dc10 f   sfc_debug:sfcdebug.obj
 0001:0002cc20       sf_debug_is_uninterruptible 000000018002dc20 f   sfc_debug:sfcdebug.obj
 0001:0002cc50       sf_debug_initialize_debugger_gui 000000018002dc50 f   sfc_debug:sfcdebug.obj
 0001:0002d040       sf_debug_resume            000000018002e040 f   sfc_debug:sfcdebug.obj
 0001:0002d060       sf_debug_go                000000018002e060 f   sfc_debug:sfcdebug.obj
 0001:0002d070       sf_debug_break             000000018002e070 f   sfc_debug:sfcdebug.obj
 0001:0002d080       sf_debug_step_over         000000018002e080 f   sfc_debug:sfcdebug.obj
 0001:0002d090       sf_debug_step_out          000000018002e090 f   sfc_debug:sfcdebug.obj
 0001:0002d0a0       sf_debug_set_disable_all_breakpoints 000000018002e0a0 f   sfc_debug:sfcdebug.obj
 0001:0002d0b0       sf_debug_disable_all_breakpoints_and_go 000000018002e0b0 f   sfc_debug:sfcdebug.obj
 0001:0002d0c0       sf_debug_break_on_chart_entry 000000018002e0c0 f   sfc_debug:sfcdebug.obj
 0001:0002d0d0       sf_debug_break_on_event_broadcast 000000018002e0d0 f   sfc_debug:sfcdebug.obj
 0001:0002d0e0       sf_debug_break_on_state_entry 000000018002e0e0 f   sfc_debug:sfcdebug.obj
 0001:0002d0f0       sf_debug_break_between_times 000000018002e0f0 f   sfc_debug:sfcdebug.obj
 0001:0002d110       sf_debug_browse_data       000000018002e110 f   sfc_debug:sfcdebug.obj
 0001:0002d130       sf_debug_watch_data        000000018002e130 f   sfc_debug:sfcdebug.obj
 0001:0002d150       sf_debug_assign_data       000000018002e150 f   sfc_debug:sfcdebug.obj
 0001:0002d170       sf_debug_whos              000000018002e170 f   sfc_debug:sfcdebug.obj
 0001:0002d190       sf_debug_get_consistency_info 000000018002e190 f   sfc_debug:sfcdebug.obj
 0001:0002d1a0       sf_debug_browse_trace      000000018002e1a0 f   sfc_debug:sfcdebug.obj
 0001:0002d1b0       sf_debug_set_breakpoints   000000018002e1b0 f   sfc_debug:sfcdebug.obj
 0001:0002d310       sf_debug_set_eml_breakpoints 000000018002e310 f   sfc_debug:sfcdebug.obj
 0001:0002d470       sf_debug_set_script_breakpoints 000000018002e470 f   sfc_debug:sfcdebug.obj
 0001:0002d4f0       sf_debug_add_script_breakpoints 000000018002e4f0 f   sfc_debug:sfcdebug.obj
 0001:0002d560       sf_debug_clear_script_breakpoints 000000018002e560 f   sfc_debug:sfcdebug.obj
 0001:0002d5d0       sf_debug_query_script_breakpoints 000000018002e5d0 f   sfc_debug:sfcdebug.obj
 0001:0002d690       sf_debug_get_eml_script_id 000000018002e690 f   sfc_debug:sfcdebug.obj
 0001:0002d6e0       sf_debug_set_watch         000000018002e6e0 f   sfc_debug:sfcdebug.obj
 0001:0002d910       sf_debug_get_instance_handle 000000018002e910 f   sfc_debug:sfcdebug.obj
 0001:0002d9a0       sf_debug_get_active_states 000000018002e9a0 f   sfc_debug:sfcdebug.obj
 0001:0002d9b0       sf_debug_get_animation     000000018002e9b0 f   sfc_debug:sfcdebug.obj
 0001:0002d9c0       sf_debug_set_animation     000000018002e9c0 f   sfc_debug:sfcdebug.obj
 0001:0002d9d0       sf_debug_animate           000000018002e9d0 f   sfc_debug:sfcdebug.obj
 0001:0002da00       sf_debug_cycle_detection_check 000000018002ea00 f   sfc_debug:sfcdebug.obj
 0001:0002da10       sf_debug_data_range_check  000000018002ea10 f   sfc_debug:sfcdebug.obj
 0001:0002da20       sf_debug_transition_conflict_check 000000018002ea20 f   sfc_debug:sfcdebug.obj
 0001:0002da30       sf_debug_state_consistency_check 000000018002ea30 f   sfc_debug:sfcdebug.obj
 0001:0002da40       sf_debug_data_range_check_enabled 000000018002ea40 f   sfc_debug:sfcdebug.obj
 0001:0002da60       sf_debug_transition_conflict_check_enabled 000000018002ea60 f   sfc_debug:sfcdebug.obj
 0001:0002da80       sf_debug_transition_conflict_check_begin 000000018002ea80 f   sfc_debug:sfcdebug.obj
 0001:0002daa0       sf_debug_transition_conflict_check_end 000000018002eaa0 f   sfc_debug:sfcdebug.obj
 0001:0002dac0       sf_debug_stop_debugging    000000018002eac0 f   sfc_debug:sfcdebug.obj
 0001:0002daf0       sf_debug_is_cycle_detected 000000018002eaf0 f   sfc_debug:sfcdebug.obj
 0001:0002db00       sf_debug_is_array_bounds_detected 000000018002eb00 f   sfc_debug:sfcdebug.obj
 0001:0002db10       sf_debug_get_state_vectors_data_size 000000018002eb10 f   sfc_debug:sfcdebug.obj
 0001:0002db50       sf_debug_get_state_vectors_data 000000018002eb50 f   sfc_debug:sfcdebug.obj
 0001:0002dc50       sf_debug_set_state_vectors_data 000000018002ec50 f   sfc_debug:sfcdebug.obj
 0001:0002df10       sf_debug_get_script_index  000000018002ef10 f   sfc_debug:sfcdebug.obj
 0001:0002e0a0       sf_debug_add_script        000000018002f0a0 f   sfc_debug:sfcdebug.obj
 0001:0002e230       cv_eval_point              000000018002f230 f   sfc_debug:sfcdebug.obj
 0001:0002e3a0       cv_eval_testobjective      000000018002f3a0 f   sfc_debug:sfcdebug.obj
 0001:0002e4c0       sf_debug_cv_init_state     000000018002f4c0 f   sfc_debug:sfcdebug.obj
 0001:0002e5e0       sf_debug_cv_init_chart     000000018002f5e0 f   sfc_debug:sfcdebug.obj
 0001:0002e6c0       sf_debug_cv_init_trans     000000018002f6c0 f   sfc_debug:sfcdebug.obj
 0001:0002e7c0       sf_debug_cv_init_testobjectives 000000018002f7c0 f   sfc_debug:sfcdebug.obj
 0001:0002e9a0       cv_eml_init_script         000000018002f9a0 f   sfc_debug:sfcdebug.obj
 0001:0002eab0       cv_eml_init_fcn            000000018002fab0 f   sfc_debug:sfcdebug.obj
 0001:0002eb60       cv_eml_init_testobjective  000000018002fb60 f   sfc_debug:sfcdebug.obj
 0001:0002ec30       cv_eml_init_saturation     000000018002fc30 f   sfc_debug:sfcdebug.obj
 0001:0002ecf0       cv_eml_init_if             000000018002fcf0 f   sfc_debug:sfcdebug.obj
 0001:0002edc0       cv_eml_init_for            000000018002fdc0 f   sfc_debug:sfcdebug.obj
 0001:0002ee80       cv_eml_init_while          000000018002fe80 f   sfc_debug:sfcdebug.obj
 0001:0002ef40       cv_eml_init_mcdc           000000018002ff40 f   sfc_debug:sfcdebug.obj
 0001:0002f050       cv_eml_init_switch         0000000180030050 f   sfc_debug:sfcdebug.obj
 0001:0002f140       cv_eml_eval                0000000180030140 f   sfc_debug:sfcdebug.obj
 0001:0002f220       sf_debug_bm_is_a_eml_breakpoint 0000000180030220 f   sfc_debug:sfcdebug.obj
 0001:0002f370       sf_debug_temporal_threshold 0000000180030370 f   sfc_debug:sfcdebug.obj
 0001:0002f6d0       sf_debug_transition_conflict_error 00000001800306d0 f   sfc_debug:sfcdebug.obj
 0001:0002fa50       sf_debug_state_inconsistency_error 0000000180030a50 f   sfc_debug:sfcdebug.obj
 0001:0002fb70       sf_debug_check_for_state_inconsistency 0000000180030b70 f   sfc_debug:sfcdebug.obj
 0001:0002fba0       sf_debug_cycle_detecton_error 0000000180030ba0 f   sfc_debug:sfcdebug.obj
 0001:00030370       sf_debug_size_eq_check_1d  0000000180031370 f   sfc_debug:sfcdebug.obj
 0001:00030390       sf_debug_size_eq_check_nd  0000000180031390 f   sfc_debug:sfcdebug.obj
 0001:00030570       sf_debug_dim_size_eq_check 0000000180031570 f   sfc_debug:sfcdebug.obj
 0001:000305a0       sf_debug_dim_size_geq_check 00000001800315a0 f   sfc_debug:sfcdebug.obj
 0001:000305d0       sf_debug_sub_assign_size_check_nd 00000001800315d0 f   sfc_debug:sfcdebug.obj
 0001:00030810       sf_debug_matrix_matrix_index_check 0000000180031810 f   sfc_debug:sfcdebug.obj
 0001:00030840       sf_debug_vector_vector_index_check 0000000180031840 f   sfc_debug:sfcdebug.obj
 0001:00030870       sf_debug_for_loop_vector_check 0000000180031870 f   sfc_debug:sfcdebug.obj
 0001:00030900       sf_debug_runtime_error_msgid 0000000180031900 f   sfc_debug:sfcdebug.obj
 0001:00030990       sf_debug_data_array_bounds_error_check 0000000180031990 f   sfc_debug:sfcdebug.obj
 0001:00030aa0       sf_debug_eml_data_array_bounds_error_check 0000000180031aa0 f   sfc_debug:sfcdebug.obj
 0001:00030f80       sf_debug_integer_check     0000000180031f80 f   sfc_debug:sfcdebug.obj
 0001:00031060       sf_debug_not_nan_check     0000000180032060 f   sfc_debug:sfcdebug.obj
 0001:00031120       sf_debug_non_negative_check 0000000180032120 f   sfc_debug:sfcdebug.obj
 0001:000311e0       sf_debug_overflow_detection 00000001800321e0 f   sfc_debug:sfcdebug.obj
 0001:000318d0       sf_debug_cast_to_real32_T  00000001800328d0 f   sfc_debug:sfcdebug.obj
 0001:00031990       sf_debug_cast_to_int8_T    0000000180032990 f   sfc_debug:sfcdebug.obj
 0001:00031a50       sf_debug_cast_to_uint8_T   0000000180032a50 f   sfc_debug:sfcdebug.obj
 0001:00031b10       sf_debug_cast_to_int16_T   0000000180032b10 f   sfc_debug:sfcdebug.obj
 0001:00031bd0       sf_debug_cast_to_uint16_T  0000000180032bd0 f   sfc_debug:sfcdebug.obj
 0001:00031c90       sf_debug_cast_to_int32_T   0000000180032c90 f   sfc_debug:sfcdebug.obj
 0001:00031d50       sf_debug_cast_to_uint32_T  0000000180032d50 f   sfc_debug:sfcdebug.obj
 0001:00031e10       sf_debug_data_range_error  0000000180032e10 f   sfc_debug:sfcdebug.obj
 0001:00032160       sf_debug_read_before_write_check 0000000180033160 f   sfc_debug:sfcdebug.obj
 0001:000325c0       sf_debug_data_range_error_wrapper_min_max 00000001800335c0 f   sfc_debug:sfcdebug.obj
 0001:000326b0       sf_debug_data_range_error_wrapper_min 00000001800336b0 f   sfc_debug:sfcdebug.obj
 0001:00032790       sf_debug_data_range_error_wrapper_max 0000000180033790 f   sfc_debug:sfcdebug.obj
 0001:00032870       sf_debug_data_range_wrapper 0000000180033870 f   sfc_debug:sfcdebug.obj
 0001:00032920       sf_debug_set_current_status_info 0000000180033920 f   sfc_debug:sfcdebug.obj
 0001:00032cd0       sf_debug_register_message_post_receive_info 0000000180033cd0 f   sfc_debug:sfcdebug.obj
 0001:00032f40       sf_debug_call              0000000180033f40 f   sfc_debug:sfcdebug.obj
 0001:00033ba0       sf_debug_initialize_machine 0000000180034ba0 f   sfc_debug:sfcdebug.obj
 0001:00033eb0       sf_debug_initialize_chart  0000000180034eb0 f   sfc_debug:sfcdebug.obj
 0001:00034300       sf_debug_ensure_script     0000000180035300 f   sfc_debug:sfcdebug.obj
 0001:000343c0       cv_script_init_script      00000001800353c0 f   sfc_debug:sfcdebug.obj
 0001:000344b0       cv_script_init_fcn         00000001800354b0 f   sfc_debug:sfcdebug.obj
 0001:00034560       cv_script_init_testobjective 0000000180035560 f   sfc_debug:sfcdebug.obj
 0001:00034610       cv_script_init_if          0000000180035610 f   sfc_debug:sfcdebug.obj
 0001:000346c0       cv_script_init_for         00000001800356c0 f   sfc_debug:sfcdebug.obj
 0001:00034770       cv_script_init_while       0000000180035770 f   sfc_debug:sfcdebug.obj
 0001:00034820       cv_script_init_mcdc        0000000180035820 f   sfc_debug:sfcdebug.obj
 0001:00034920       cv_script_init_switch      0000000180035920 f   sfc_debug:sfcdebug.obj
 0001:00034a00       cv_script_eval             0000000180035a00 f   sfc_debug:sfcdebug.obj
 0001:00034ae0       eml_debug_line_call        0000000180035ae0 f   sfc_debug:sfcdebug.obj
 0001:00034c90       sf_debug_terminate         0000000180035c90 f   sfc_debug:sfcdebug.obj
 0001:00034e00       sf_debug_set_script_cv_ids 0000000180035e00 f   sfc_debug:sfcdebug.obj
 0001:00034f30       sf_debug_api               0000000180035f30 f   sfc_debug:sfc_api.obj
 0001:000365e0       sf_debug_sm_terminate      00000001800375e0 f   sfc_debug:sfdb_animation.obj
 0001:000367a0       sf_debug_reset_path_objects 00000001800377a0 f   sfc_debug:sfdb_animation.obj
 0001:00036820       sf_debug_sm_reset_object_selection_status 0000000180037820 f   sfc_debug:sfdb_animation.obj
 0001:000368c0       sf_debug_sm_reset_state_buffer 00000001800378c0 f   sfc_debug:sfdb_animation.obj
 0001:00036990       sf_debug_sm_store_state_buffer 0000000180037990 f   sfc_debug:sfdb_animation.obj
 0001:00036a10       sf_debug_sm_restore_state_buffer1 0000000180037a10 f   sfc_debug:sfdb_animation.obj
 0001:00036a80       sf_debug_sm_restore_state_buffer2 0000000180037a80 f   sfc_debug:sfdb_animation.obj
 0001:00036af0       sf_debug_sm_chart_active   0000000180037af0 f   sfc_debug:sfdb_animation.obj
 0001:00036b40       sf_debug_sm_select_active_objects 0000000180037b40 f   sfc_debug:sfdb_animation.obj
 0001:00037030       sf_debug_sm_is_chart_active 0000000180038030 f   sfc_debug:sfdb_animation.obj
 0001:00037070       sf_debug_sm_is_state_active 0000000180038070 f   sfc_debug:sfdb_animation.obj
 0001:000372b0       sf_debug_sm_get_active_states 00000001800382b0 f   sfc_debug:sfdb_animation.obj
 0001:00037870       sf_debug_sm_initialize_instance 0000000180038870 f   sfc_debug:sfdb_animation.obj
 0001:00037a90       sf_debug_sm_change_object_selection_status 0000000180038a90 f   sfc_debug:sfdb_animation.obj
 0001:00037da0       cv_create_interface        0000000180038da0 f   sfc_debug:cv_sfinterface.obj
 0001:00038100       cv_init_trans              0000000180039100 f   sfc_debug:cv_sfinterface.obj
 0001:00038150       cv_init_testobjective      0000000180039150 f   sfc_debug:cv_sfinterface.obj
 0001:00038190       cv_init_state              0000000180039190 f   sfc_debug:cv_sfinterface.obj
 0001:00038200       cv_init_chart              0000000180039200 f   sfc_debug:cv_sfinterface.obj
 0001:00038250       cv_dec_update_call         0000000180039250 f   sfc_debug:cv_sfinterface.obj
 0001:00038290       cv_cond_update_call        0000000180039290 f   sfc_debug:cv_sfinterface.obj
 0001:000382d0       cv_testobjective_update_call 00000001800392d0 f   sfc_debug:cv_sfinterface.obj
 0001:00038310       cv_sigrange_update         0000000180039310 f   sfc_debug:cv_sfinterface.obj
 0001:00038350       cvsf_eml_eval              0000000180039350 f   sfc_debug:cv_sfinterface.obj
 0001:00038440       cvsf_eml_init_script       0000000180039440 f   sfc_debug:cv_sfinterface.obj
 0001:000384d0       cvsf_eml_init_fcn          00000001800394d0 f   sfc_debug:cv_sfinterface.obj
 0001:00038530       cvsf_eml_init_testobjective 0000000180039530 f   sfc_debug:cv_sfinterface.obj
 0001:00038590       cvsf_eml_init_saturation   0000000180039590 f   sfc_debug:cv_sfinterface.obj
 0001:000385e0       cvsf_eml_init_if           00000001800395e0 f   sfc_debug:cv_sfinterface.obj
 0001:00038640       cvsf_eml_init_for          0000000180039640 f   sfc_debug:cv_sfinterface.obj
 0001:00038690       cvsf_eml_init_while        0000000180039690 f   sfc_debug:cv_sfinterface.obj
 0001:000386e0       cvsf_eml_init_mcdc         00000001800396e0 f   sfc_debug:cv_sfinterface.obj
 0001:00038770       cvsf_eml_init_switch       0000000180039770 f   sfc_debug:cv_sfinterface.obj
 0001:000387e0       cvsf_script_eval           00000001800397e0 f   sfc_debug:cv_sfinterface.obj
 0001:000388d0       cvsf_script_init_script    00000001800398d0 f   sfc_debug:cv_sfinterface.obj
 0001:00038960       cvsf_script_init_fcn       0000000180039960 f   sfc_debug:cv_sfinterface.obj
 0001:000389c0       cvsf_script_init_testobjective 00000001800399c0 f   sfc_debug:cv_sfinterface.obj
 0001:00038a20       cvsf_script_init_saturation 0000000180039a20 f   sfc_debug:cv_sfinterface.obj
 0001:00038a70       cvsf_script_init_if        0000000180039a70 f   sfc_debug:cv_sfinterface.obj
 0001:00038ad0       cvsf_script_init_for       0000000180039ad0 f   sfc_debug:cv_sfinterface.obj
 0001:00038b20       cvsf_script_init_while     0000000180039b20 f   sfc_debug:cv_sfinterface.obj
 0001:00038b70       cvsf_script_init_mcdc      0000000180039b70 f   sfc_debug:cv_sfinterface.obj
 0001:00038c00       cvsf_script_init_switch    0000000180039c00 f   sfc_debug:cv_sfinterface.obj
 0001:00038c70       cv_destroy_interface       0000000180039c70 f   sfc_debug:cv_sfinterface.obj
 0001:00038c90       cv_create_instance_objects 0000000180039c90 f   sfc_debug:cv_sfinterface.obj
 0001:00039140       cv_is_enabled              000000018003a140 f   sfc_debug:cv_sfinterface.obj
 0001:00039150       sf_debug_cv_initialize_script 000000018003a150 f   sfc_debug:cv_sfinterface.obj
 0001:00039300       sf_debug_cv_initialize_instance 000000018003a300 f   sfc_debug:cv_sfinterface.obj
 0001:000396a0       sf_debug_cv_terminate_chart 000000018003a6a0 f   sfc_debug:cv_sfinterface.obj
 0001:000397e0       cv_call_trans_test         000000018003a7e0 f   sfc_debug:cv_sfinterface.obj
 0001:000397f0       cv_call_sub_cond_test      000000018003a7f0 f   sfc_debug:cv_sfinterface.obj
 0001:00039830       sf_debug_st_initialize_machine 000000018003a830 f   sfc_debug:sfdb_data_browse.obj
 0001:000398f0       sf_debug_st_initialize_instance 000000018003a8f0 f   sfc_debug:sfdb_data_browse.obj
 0001:00039b20       sf_debug_st_terminate      000000018003ab20 f   sfc_debug:sfdb_data_browse.obj
 0001:00039ec0       sf_debug_st_set_data_value_ptr_in_machine 000000018003aec0 f   sfc_debug:sfdb_data_browse.obj
 0001:00039f50       sf_debug_st_set_data_value_ptr_in_instance 000000018003af50 f   sfc_debug:sfdb_data_browse.obj
 0001:0003a030       sf_debug_st_unset_data_value_ptr_in_machine 000000018003b030 f   sfc_debug:sfdb_data_browse.obj
 0001:0003a0a0       sf_debug_st_unset_data_value_ptr_in_instance 000000018003b0a0 f   sfc_debug:sfdb_data_browse.obj
 0001:0003a3b0       sf_debug_mx_value          000000018003b3b0 f   sfc_debug:sfdb_data_browse.obj
 0001:0003a410       sf_debug_mx_packed_vector  000000018003b410 f   sfc_debug:sfdb_data_browse.obj
 0001:0003a4f0       sf_debug_mx_uint_vector    000000018003b4f0 f   sfc_debug:sfdb_data_browse.obj
 0001:0003a5b0       sf_debug_st_get_double_value_from_void_ptr_vector 000000018003b5b0 f   sfc_debug:sfdb_data_browse.obj
 0001:0003b0a0       sf_debug_st_browse_data    000000018003c0a0 f   sfc_debug:sfdb_data_browse.obj
 0001:0003b930       sf_debug_hm_initialize_instance 000000018003c930 f   sfc_debug:sfdb_handle_management.obj
 0001:0003be60       sf_debug_hm_get_object_id  000000018003ce60 f   sfc_debug:sfdb_handle_management.obj
 0001:0003ca10       sf_debug_hm_update_chart_visibility 000000018003da10 f   sfc_debug:sfdb_handle_management.obj
 0001:0003dcf0       sf_debug_object_is_eml_function 000000018003ecf0 f   sfc_debug:sfdb_handle_management.obj
 0001:0003dd60       sf_debug_hm_initialize_ids_in_machine 000000018003ed60 f   sfc_debug:sfdb_handle_management.obj
 0001:0003ded0       sf_debug_hm_initialize_ids_in_chart 000000018003eed0 f   sfc_debug:sfdb_handle_management.obj
 0001:0003dfd0       sf_debug_hm_initialize_chart 000000018003efd0 f   sfc_debug:sfdb_handle_management.obj
 0001:0003e770       sf_debug_hm_terminate      000000018003f770 f   sfc_debug:sfdb_handle_management.obj
 0001:0003e7d0       sf_debug_hm_initialize_machine 000000018003f7d0 f   sfc_debug:sfdb_handle_management.obj
 0001:0003ef80       sf_debug_ss_initialize     000000018003ff80 f   sfc_debug:sfdb_symbol_scope.obj
 0001:0003efa0       sf_debug_ss_terminate      000000018003ffa0 f   sfc_debug:sfdb_symbol_scope.obj
 0001:0003f030       sf_debug_ss_push_symbol_scope 0000000180040030 f   sfc_debug:sfdb_symbol_scope.obj
 0001:0003f130       sf_debug_ss_push_symbol_scope_eml 0000000180040130 f   sfc_debug:sfdb_symbol_scope.obj
 0001:0003f190       sf_debug_ss_pop_symbol_scope 0000000180040190 f   sfc_debug:sfdb_symbol_scope.obj
 0001:0003f240       sf_debug_ss_add_symbol     0000000180040240 f   sfc_debug:sfdb_symbol_scope.obj
 0001:0003f3a0       sf_debug_ss_add_symbol_eml 00000001800403a0 f   sfc_debug:sfdb_symbol_scope.obj
 0001:000400c0       sf_debug_ss_set_data_value 00000001800410c0 f   sfc_debug:sfdb_symbol_scope.obj
 0001:00040590       getInstanceNumber          0000000180041590 f   sfc_debug:sfdb_symbol_scope.obj
 0001:00040660       sf_debug_ss_watch_data     0000000180041660 f   sfc_debug:sfdb_symbol_scope.obj
 0001:00040800       sf_debug_ss_assign_data    0000000180041800 f   sfc_debug:sfdb_symbol_scope.obj
 0001:00041220       get_data_entry_name        0000000180042220 f   sfc_debug:sfdb_symbol_scope.obj
 0001:00041270       sf_debug_ss_whos           0000000180042270 f   sfc_debug:sfdb_symbol_scope.obj
 0001:00041990       sf_debug_cc_initialize_chart 0000000180042990 f   sfc_debug:sfdb_coverage.obj
 0001:00042380       sf_debug_cc_initialize_instance 0000000180043380 f   sfc_debug:sfdb_coverage.obj
 0001:00043190       sf_debug_cc_terminate      0000000180044190 f   sfc_debug:sfdb_coverage.obj
 0001:00043280       sf_debug_cc_set_transition_maps 0000000180044280 f   sfc_debug:sfdb_coverage.obj
 0001:000433b0       sf_debug_cc_set_state_maps 00000001800443b0 f   sfc_debug:sfdb_coverage.obj
 0001:00043490       sf_debug_cc_set_transition_weights 0000000180044490 f   sfc_debug:sfdb_coverage.obj
 0001:00043760       sf_debug_cc_set_state_weights 0000000180044760 f   sfc_debug:sfdb_coverage.obj
 0001:00043a30       sf_debug_cc_mark_transition_guard 0000000180044a30 f   sfc_debug:sfdb_coverage.obj
 0001:00043ac0       sf_debug_cc_mark_transition_trigger 0000000180044ac0 f   sfc_debug:sfdb_coverage.obj
 0001:00043b50       sf_debug_cc_mark_transition_decision 0000000180044b50 f   sfc_debug:sfdb_coverage.obj
 0001:00043bc0       sf_debug_cc_mark_transition_condition_action 0000000180044bc0 f   sfc_debug:sfdb_coverage.obj
 0001:00043c10       sf_debug_cc_mark_transition_transition_action 0000000180044c10 f   sfc_debug:sfdb_coverage.obj
 0001:00043c60       sf_debug_cc_mark_state_entry 0000000180044c60 f   sfc_debug:sfdb_coverage.obj
 0001:00043cb0       sf_debug_cc_mark_state_during 0000000180044cb0 f   sfc_debug:sfdb_coverage.obj
 0001:00043d00       sf_debug_cc_mark_state_exit 0000000180044d00 f   sfc_debug:sfdb_coverage.obj
 0001:00043d50       sf_debug_bm_clear_script_breakpoints 0000000180044d50 f   sfc_debug:sfdb_breakpoints.obj
 0001:00043d80       sf_debug_bm_set_script_breakpoint 0000000180044d80 f   sfc_debug:sfdb_breakpoints.obj
 0001:00043e00       sf_debug_bm_clear_single_script_breakpoint 0000000180044e00 f   sfc_debug:sfdb_breakpoints.obj
 0001:00043e80       sf_debug_bm_query_script_breakpoint 0000000180044e80 f   sfc_debug:sfdb_breakpoints.obj
 0001:00043ed0       sf_debug_bm_initialize_scripts 0000000180044ed0 f   sfc_debug:sfdb_breakpoints.obj
 0001:000445f0       sf_debug_bm_terminate      00000001800455f0 f   sfc_debug:sfdb_breakpoints.obj
 0001:000448e0       sf_debug_bm_remove_all_breakpoints_in_machine 00000001800458e0 f   sfc_debug:sfdb_breakpoints.obj
 0001:00044950       sf_debug_bm_remove_all_breakpoints_in_chart 0000000180045950 f   sfc_debug:sfdb_breakpoints.obj
 0001:00044aa0       sf_debug_bm_initialize_global_breakpoints 0000000180045aa0 f   sfc_debug:sfdb_breakpoints.obj
 0001:00044c20       sf_debug_bm_set_breakpoint 0000000180045c20 f   sfc_debug:sfdb_breakpoints.obj
 0001:00045220       sf_debug_bm_set_eml_breakpoint 0000000180046220 f   sfc_debug:sfdb_breakpoints.obj
 0001:000452c0       sf_debug_bm_initialize_machine_breakpoint_map 00000001800462c0 f   sfc_debug:sfdb_breakpoints.obj
 0001:000456e0       sf_debug_bm_is_a_breakpoint 00000001800466e0 f   sfc_debug:sfdb_breakpoints.obj
 0001:00045cc0       sf_debug_bm_get_all_breakpoints_in_machine 0000000180046cc0 f   sfc_debug:sfdb_breakpoints.obj
 0001:00045fc0       sf_debug_bm_get_all_breakpoints_in_chart 0000000180046fc0 f   sfc_debug:sfdb_breakpoints.obj
 0001:00046c80       sf_debug_bm_initialize_machine 0000000180047c80 f   sfc_debug:sfdb_breakpoints.obj
 0001:00046d50       sf_debug_bm_initialize_chart 0000000180047d50 f   sfc_debug:sfdb_breakpoints.obj
 0001:00047170       sf_debug_sc_terminate      0000000180048170 f   sfc_debug:sfdb_state_consistency.obj
 0001:000474a0       sf_debug_sc_is_chart_consistent 00000001800484a0 f   sfc_debug:sfdb_state_consistency.obj
 0001:00047750       sf_debug_sc_get_consistency_error_info 0000000180048750 f   sfc_debug:sfdb_state_consistency.obj
 0001:00047ba0       sf_debug_tm_terminate      0000000180048ba0 f   sfc_debug:sfdb_call_stack.obj
 0001:00047c60       sf_debug_tm_push_chart_instance 0000000180048c60 f   sfc_debug:sfdb_call_stack.obj
 0001:00047db0       sf_debug_tm_pop_chart_instance 0000000180048db0 f   sfc_debug:sfdb_call_stack.obj
 0001:00047e10       sf_debug_tm_push_trace_node 0000000180048e10 f   sfc_debug:sfdb_call_stack.obj
 0001:00047fa0       sf_debug_tm_pop_trace_node 0000000180048fa0 f   sfc_debug:sfdb_call_stack.obj
 0001:00048020       sf_debug_tm_get_current_global_trace_index 0000000180049020 f   sfc_debug:sfdb_call_stack.obj
 0001:00048030       sf_debug_tm_get_current_local_trace_index 0000000180049030 f   sfc_debug:sfdb_call_stack.obj
 0001:00048060       sf_debug_tm_set_cycle_detected_flag 0000000180049060 f   sfc_debug:sfdb_call_stack.obj
 0001:000480a0       sf_debug_tm_set_cycle_started_flag 00000001800490a0 f   sfc_debug:sfdb_call_stack.obj
 0001:000480e0       sf_debug_tm_get_chart_number_from_stack 00000001800490e0 f   sfc_debug:sfdb_call_stack.obj
 0001:000482e0       sf_debug_tm_browse_trace   00000001800492e0 f   sfc_debug:sfdb_call_stack.obj
 0001:00048620       sf_debug_cd_initialize_instance 0000000180049620 f   sfc_debug:sfdb_cycle_detection.obj
 0001:000488d0       sf_debug_cd_mark_processed_transition_in_instance 00000001800498d0 f   sfc_debug:sfdb_cycle_detection.obj
 0001:00048970       sf_debug_cd_checksum_push  0000000180049970 f   sfc_debug:sfdb_cycle_detection.obj
 0001:00048c30       sf_debug_cd_checksum_pop   0000000180049c30 f   sfc_debug:sfdb_cycle_detection.obj
 0001:00048ca0       sf_debug_cd_turn_off_cycle_detection 0000000180049ca0 f   sfc_debug:sfdb_cycle_detection.obj
 0001:00048cf0       sf_debug_cd_terminate      0000000180049cf0 f   sfc_debug:sfdb_cycle_detection.obj
 0001:00048f30       md5_initialize_state       0000000180049f30 f   sfc_debug:ckmd5.obj
 0001:000499a0       md5_update_state           000000018004a9a0 f   sfc_debug:ckmd5.obj
 0001:000499c0       md5_get_hash               000000018004a9c0 f   sfc_debug:ckmd5.obj
 0001:000499f0       md5_get_hash_for_a_single_string 000000018004a9f0 f   sfc_debug:ckmd5.obj
 0001:00049a54       mxGetPr                    000000018004aa54 f   libmx:libmx.dll
 0001:00049a5a       mxCreateDoubleScalar       000000018004aa5a f   libmx:libmx.dll
 0001:00049a60       mxCreateDoubleMatrix_730   000000018004aa60 f   libmx:libmx.dll
 0001:00049a66       mxSetField_730             000000018004aa66 f   libmx:libmx.dll
 0001:00049a6c       mxCreateString             000000018004aa6c f   libmx:libmx.dll
 0001:00049a72       mxCreateStructMatrix_730   000000018004aa72 f   libmx:libmx.dll
 0001:00049a78       mxDestroyArray             000000018004aa78 f   libmx:libmx.dll
 0001:00049a7e       mxDuplicateArray           000000018004aa7e f   libmx:libmx.dll
 0001:00049a84       mxGetString_730            000000018004aa84 f   libmx:libmx.dll
 0001:00049a8a       mxIsChar                   000000018004aa8a f   libmx:libmx.dll
 0001:00049a90       mxGetClassID               000000018004aa90 f   libmx:libmx.dll
 0001:00049a96       mxIsNumeric                000000018004aa96 f   libmx:libmx.dll
 0001:00049a9c       mxIsComplex                000000018004aa9c f   libmx:libmx.dll
 0001:00049aa2       mxGetN                     000000018004aaa2 f   libmx:libmx.dll
 0001:00049aa8       mxGetM                     000000018004aaa8 f   libmx:libmx.dll
 0001:00049aae       mxCalloc                   000000018004aaae f   libmx:libmx.dll
 0001:00049ab4       mxGetScalar                000000018004aab4 f   libmx:libmx.dll
 0001:00049aba       mxIsLogical                000000018004aaba f   libmx:libmx.dll
 0001:00049ac0       mxCreateDoubleMatrix_700   000000018004aac0 f   libmx:libmx.dll
 0001:00049ac6       mxFree                     000000018004aac6 f   libmx:libmx.dll
 0001:00049acc       mxArrayToString            000000018004aacc f   libmx:libmx.dll
 0001:00049ad2       mxCreateCellMatrix_700     000000018004aad2 f   libmx:libmx.dll
 0001:00049ad8       mxSetCell_700              000000018004aad8 f   libmx:libmx.dll
 0001:00049ade       mxGetCell_700              000000018004aade f   libmx:libmx.dll
 0001:00049ae4       mxGetClassName             000000018004aae4 f   libmx:libmx.dll
 0001:00049aea       mxSetField_700             000000018004aaea f   libmx:libmx.dll
 0001:00049af0       mxAddField                 000000018004aaf0 f   libmx:libmx.dll
 0001:00049af6       mxGetField_700             000000018004aaf6 f   libmx:libmx.dll
 0001:00049afc       mxGetNumberOfElements      000000018004aafc f   libmx:libmx.dll
 0001:00049b02       mxIsStruct                 000000018004ab02 f   libmx:libmx.dll
 0001:00049b08       mxIsA                      000000018004ab08 f   libmx:libmx.dll
 0001:00049b0e       mxIsClass                  000000018004ab0e f   libmx:libmx.dll
 0001:00049b14       mxGetLogicals              000000018004ab14 f   libmx:libmx.dll
 0001:00049b1a       mxIsSparse                 000000018004ab1a f   libmx:libmx.dll
 0001:00049b20       mxSetFieldByNumber_700     000000018004ab20 f   libmx:libmx.dll
 0001:00049b26       mxGetFieldByNumber_700     000000018004ab26 f   libmx:libmx.dll
 0001:00049b2c       mxGetFieldNameByNumber     000000018004ab2c f   libmx:libmx.dll
 0001:00049b32       mxGetNumberOfFields        000000018004ab32 f   libmx:libmx.dll
 0001:00049b38       mxCreateStructMatrix_700   000000018004ab38 f   libmx:libmx.dll
 0001:00049b3e       mxGetFieldNumber           000000018004ab3e f   libmx:libmx.dll
 0001:00049b44       mxIsNaN                    000000018004ab44 f   libmx:libmx.dll
 0001:00049b4a       mxIsEmpty                  000000018004ab4a f   libmx:libmx.dll
 0001:00049b50       mxGetData                  000000018004ab50 f   libmx:libmx.dll
 0001:00049b56       mxGetImagData              000000018004ab56 f   libmx:libmx.dll
 0001:00049b5c       mxArrayClassIDName         000000018004ab5c f   libmx:libmx.dll
 0001:00049b62       mxCreateNumericMatrix_700  000000018004ab62 f   libmx:libmx.dll
 0001:00049b68       mxCreateStructArray_700    000000018004ab68 f   libmx:libmx.dll
 0001:00049b6e       mxCalcSingleSubscript_700  000000018004ab6e f   libmx:libmx.dll
 0001:00049b74       mxGetDimensions_700        000000018004ab74 f   libmx:libmx.dll
 0001:00049b7a       mxGetNumberOfDimensions_700 000000018004ab7a f   libmx:libmx.dll
 0001:00049b80       mxCreateNumericArray_700   000000018004ab80 f   libmx:libmx.dll
 0001:00049b86       mxGetElementSize           000000018004ab86 f   libmx:libmx.dll
 0001:00049b8c       mxCreateStringFromNChars_700 000000018004ab8c f   libmx:libmx.dll
 0001:00049b92       mxGetString_700            000000018004ab92 f   libmx:libmx.dll
 0001:00049b98       mxIsLogicalScalarTrue      000000018004ab98 f   libmx:libmx.dll
 0001:00049b9e       mxCreateLogicalScalar      000000018004ab9e f   libmx:libmx.dll
 0001:00049ba4       mexUnlock                  000000018004aba4 f   libmex:libmex.dll
 0001:00049baa       mexIsLocked                000000018004abaa f   libmex:libmex.dll
 0001:00049bb0       mexWarnMsgTxt              000000018004abb0 f   libmex:libmex.dll
 0001:00049bb6       mexCallMATLAB              000000018004abb6 f   libmex:libmex.dll
 0001:00049bbc       mexErrMsgTxt               000000018004abbc f   libmex:libmex.dll
 0001:00049bc2       mexMakeArrayPersistent     000000018004abc2 f   libmex:libmex.dll
 0001:00049bc8       mexSetTrapFlag             000000018004abc8 f   libmex:libmex.dll
 0001:00049bce       mexPutVariable             000000018004abce f   libmex:libmex.dll
 0001:00049bd4       mexGetVariable             000000018004abd4 f   libmex:libmex.dll
 0001:00049bda       mexLock                    000000018004abda f   libmex:libmex.dll
 0001:00049be0       mexMakeMemoryPersistent    000000018004abe0 f   libmex:libmex.dll
 0001:00049be6       mexFunctionName            000000018004abe6 f   libmex:libmex.dll
 0001:00049bec       ssRegisterDataTypeFxpFSlopeFixExpBias 000000018004abec f   libfixedpoint:libfixedpoint.dll
 0001:00049bf2       utVSNprintf                000000018004abf2 f   libut:libut.dll
 0001:00049bf8       utCPUtime                  000000018004abf8 f   libut:libut.dll
 0001:00049bfe       utFree                     000000018004abfe f   libut:libut.dll
 0001:00049c04       utMalloc                   000000018004ac04 f   libut:libut.dll
 0001:00049c0a       muDoubleScalarSin          000000018004ac0a f   libmwmathutil:libmwmathutil.dll
 0001:00049c10       muDoubleScalarCos          000000018004ac10 f   libmwmathutil:libmwmathutil.dll
 0001:00049c16       muDoubleScalarPower        000000018004ac16 f   libmwmathutil:libmwmathutil.dll
 0001:00049c1c       muDoubleScalarAbs          000000018004ac1c f   libmwmathutil:libmwmathutil.dll
 0001:00049c22       emlrtCreateRootTLS         000000018004ac22 f   libemlrt:libemlrt.dll
 0001:00049c28       emlrtDestroyRootTLS        000000018004ac28 f   libemlrt:libemlrt.dll
 0001:00049c2e       emlrtCheckBuiltInR2012b    000000018004ac2e f   libemlrt:libemlrt.dll
 0001:00049c34       emlrtCheckVsBuiltInR2012b  000000018004ac34 f   libemlrt:libemlrt.dll
 0001:00049c3a       emlrtCheckEnumR2012b       000000018004ac3a f   libemlrt:libemlrt.dll
 0001:00049c40       emlrtCreateEnumR2012b      000000018004ac40 f   libemlrt:libemlrt.dll
 0001:00049c46       emlrtGetEnumElementR2009a  000000018004ac46 f   libemlrt:libemlrt.dll
 0001:00049c4c       emlrtCreateReference       000000018004ac4c f   libemlrt:libemlrt.dll
 0001:00049c52       emlrtImportVsFiArrayR2009b 000000018004ac52 f   libemlrt:libemlrt.dll
 0001:00049c58       emlrtNameCapturePostProcessR2012a 000000018004ac58 f   libemlrt:libemlrt.dll
 0001:00049c5e       emlrtExtractMessageId      000000018004ac5e f   libemlrt:libemlrt.dll
 0001:00049c64       emlrtTranslateMessageIDtoLCPstring 000000018004ac64 f   libemlrt:libemlrt.dll
 0001:00049c6a       emlrtForLoopVectorIsValidR2011b 000000018004ac6a f   libemlrt:libemlrt.dll
 0001:00049c70       emlrtTranslateUTF16MessagetoLCPstring 000000018004ac70 f   libemlrt:libemlrt.dll
 0001:00049c76       emlrtGetEnumUnderlyingArrayR2009a 000000018004ac76 f   libemlrt:libemlrt.dll
 0001:00049c7c       emlrtIsEnumR2009a          000000018004ac7c f   libemlrt:libemlrt.dll
 0001:00049c84       __GSHandlerCheckCommon     000000018004ac84 f   MSVCRT:gshandler.obj
 0001:00049ce8       __GSHandlerCheck           000000018004ace8 f   MSVCRT:gshandler.obj
 0001:00049d06       strlen                     000000018004ad06 f   MSVCRT:MSVCR100.dll
 0001:00049d20       __security_check_cookie    000000018004ad20 f   MSVCRT:amdsecgs.obj
 0001:00049d40       memset                     000000018004ad40 f   MSVCRT:MSVCR100.dll
 0001:00049d46       malloc                     000000018004ad46 f   MSVCRT:MSVCR100.dll
 0001:00049d4c       free                       000000018004ad4c f   MSVCRT:MSVCR100.dll
 0001:00049d52       strcmp                     000000018004ad52 f   MSVCRT:MSVCR100.dll
 0001:00049d58       sprintf                    000000018004ad58 f   MSVCRT:MSVCR100.dll
 0001:00049d5e       strcat                     000000018004ad5e f   MSVCRT:MSVCR100.dll
 0001:00049d64       memcpy                     000000018004ad64 f   MSVCRT:MSVCR100.dll
 0001:00049d6c       NtCurrentTeb               000000018004ad6c f i MSVCRT:crtdll.obj
 0001:00049dd8       _CRT_INIT                  000000018004add8 f   MSVCRT:crtdll.obj
 0001:0004a170       _DllMainCRTStartup         000000018004b170 f   MSVCRT:crtdll.obj
 0001:0004a1ae       strncpy                    000000018004b1ae f   MSVCRT:MSVCR100.dll
 0001:0004a1d0       _alloca_probe              000000018004b1d0     MSVCRT:chkstk.obj
 0001:0004a1d0       __chkstk                   000000018004b1d0 f   MSVCRT:chkstk.obj
 0001:0004a21e       longjmp                    000000018004b21e f   MSVCRT:MSVCR100.dll
 0001:0004a224       strncmp                    000000018004b224 f   MSVCRT:MSVCR100.dll
 0001:0004a22a       ceil                       000000018004b22a f   MSVCRT:MSVCR100.dll
 0001:0004a230       strrchr                    000000018004b230 f   MSVCRT:MSVCR100.dll
 0001:0004a236       _setjmp                    000000018004b236 f   MSVCRT:MSVCR100.dll
 0001:0004a23c       calloc                     000000018004b23c f   MSVCRT:MSVCR100.dll
 0001:0004a242       realloc                    000000018004b242 f   MSVCRT:MSVCR100.dll
 0001:0004a248       ldexp                      000000018004b248 f   MSVCRT:MSVCR100.dll
 0001:0004a250       __report_gsfailure         000000018004b250 f   MSVCRT:gs_report.obj
 0001:0004a39c       __clean_type_info_names    000000018004b39c f   MSVCRT:tncleanup.obj
 0001:0004a3a8       _onexit                    000000018004b3a8 f   MSVCRT:atonexit.obj
 0001:0004a458       atexit                     000000018004b458 f   MSVCRT:atonexit.obj
 0001:0004a470       _RTC_Initialize            000000018004b470 f   MSVCRT:_initsect_.obj
 0001:0004a4a8       _RTC_Terminate             000000018004b4a8 f   MSVCRT:_initsect_.obj
 0001:0004a4e0       _malloc_crt                000000018004b4e0 f   MSVCRT:MSVCR100.dll
 0001:0004a4f0       _ValidateImageBase         000000018004b4f0 f   MSVCRT:pesect.obj
 0001:0004a520       _FindPESection             000000018004b520 f   MSVCRT:pesect.obj
 0001:0004a570       _IsNonwritableInCurrentImage 000000018004b570 f   MSVCRT:pesect.obj
 0001:0004a5b2       _initterm                  000000018004b5b2 f   MSVCRT:MSVCR100.dll
 0001:0004a5b8       _initterm_e                000000018004b5b8 f   MSVCRT:MSVCR100.dll
 0001:0004a5be       _encoded_null              000000018004b5be f   MSVCRT:MSVCR100.dll
 0001:0004a5c4       _amsg_exit                 000000018004b5c4 f   MSVCRT:MSVCR100.dll
 0001:0004a5ca       __C_specific_handler       000000018004b5ca f   MSVCRT:MSVCR100.dll
 0001:0004a5d0       __CppXcptFilter            000000018004b5d0 f   MSVCRT:MSVCR100.dll
 0001:0004a5d8       DllMain                    000000018004b5d8 f   MSVCRT:dllmain.obj
 0001:0004a5fc       __security_init_cookie     000000018004b5fc f   MSVCRT:gs_support.obj
 0001:0004a6b0       __crt_debugger_hook        000000018004b6b0 f   MSVCRT:MSVCR100.dll
 0001:0004a6b6       __clean_type_info_names_internal 000000018004b6b6 f   MSVCRT:MSVCR100.dll
 0001:0004a6bc       _unlock                    000000018004b6bc f   MSVCRT:MSVCR100.dll
 0001:0004a6c2       __dllonexit                000000018004b6c2 f   MSVCRT:MSVCR100.dll
 0001:0004a6c8       _lock                      000000018004b6c8 f   MSVCRT:MSVCR100.dll
 0001:0004a6ce       EncodePointer              000000018004b6ce f   kernel32:KERNEL32.dll
 0001:0004a6d4       DecodePointer              000000018004b6d4 f   kernel32:KERNEL32.dll
 0001:0004a6da       Sleep                      000000018004b6da f   kernel32:KERNEL32.dll
 0001:0004a6e0       TerminateProcess           000000018004b6e0 f   kernel32:KERNEL32.dll
 0001:0004a6e6       GetCurrentProcess          000000018004b6e6 f   kernel32:KERNEL32.dll
 0001:0004a6ec       UnhandledExceptionFilter   000000018004b6ec f   kernel32:KERNEL32.dll
 0001:0004a6f2       SetUnhandledExceptionFilter 000000018004b6f2 f   kernel32:KERNEL32.dll
 0001:0004a6f8       IsDebuggerPresent          000000018004b6f8 f   kernel32:KERNEL32.dll
 0001:0004a6fe       RtlVirtualUnwind           000000018004b6fe f   kernel32:KERNEL32.dll
 0001:0004a704       RtlLookupFunctionEntry     000000018004b704 f   kernel32:KERNEL32.dll
 0001:0004a70a       RtlCaptureContext          000000018004b70a f   kernel32:KERNEL32.dll
 0001:0004a710       DisableThreadLibraryCalls  000000018004b710 f   kernel32:KERNEL32.dll
 0001:0004a716       QueryPerformanceCounter    000000018004b716 f   kernel32:KERNEL32.dll
 0001:0004a71c       GetTickCount               000000018004b71c f   kernel32:KERNEL32.dll
 0001:0004a722       GetCurrentThreadId         000000018004b722 f   kernel32:KERNEL32.dll
 0001:0004a728       GetCurrentProcessId        000000018004b728 f   kernel32:KERNEL32.dll
 0001:0004a72e       GetSystemTimeAsFileTime    000000018004b72e f   kernel32:KERNEL32.dll
 0002:00000000       __imp_DisableThreadLibraryCalls 000000018004c000     kernel32:KERNEL32.dll
 0002:00000008       __imp_RtlCaptureContext    000000018004c008     kernel32:KERNEL32.dll
 0002:00000010       __imp_RtlLookupFunctionEntry 000000018004c010     kernel32:KERNEL32.dll
 0002:00000018       __imp_RtlVirtualUnwind     000000018004c018     kernel32:KERNEL32.dll
 0002:00000020       __imp_IsDebuggerPresent    000000018004c020     kernel32:KERNEL32.dll
 0002:00000028       __imp_SetUnhandledExceptionFilter 000000018004c028     kernel32:KERNEL32.dll
 0002:00000030       __imp_UnhandledExceptionFilter 000000018004c030     kernel32:KERNEL32.dll
 0002:00000038       __imp_GetCurrentProcess    000000018004c038     kernel32:KERNEL32.dll
 0002:00000040       __imp_TerminateProcess     000000018004c040     kernel32:KERNEL32.dll
 0002:00000048       __imp_Sleep                000000018004c048     kernel32:KERNEL32.dll
 0002:00000050       __imp_DecodePointer        000000018004c050     kernel32:KERNEL32.dll
 0002:00000058       __imp_EncodePointer        000000018004c058     kernel32:KERNEL32.dll
 0002:00000060       __imp_GetTickCount         000000018004c060     kernel32:KERNEL32.dll
 0002:00000068       __imp_GetCurrentThreadId   000000018004c068     kernel32:KERNEL32.dll
 0002:00000070       __imp_GetCurrentProcessId  000000018004c070     kernel32:KERNEL32.dll
 0002:00000078       __imp_GetSystemTimeAsFileTime 000000018004c078     kernel32:KERNEL32.dll
 0002:00000080       __imp_QueryPerformanceCounter 000000018004c080     kernel32:KERNEL32.dll
 0002:00000088       \177KERNEL32_NULL_THUNK_DATA 000000018004c088     kernel32:KERNEL32.dll
 0002:00000090       __imp_realloc              000000018004c090     MSVCRT:MSVCR100.dll
 0002:00000098       __imp__onexit              000000018004c098     MSVCRT:MSVCR100.dll
 0002:000000a0       __imp__lock                000000018004c0a0     MSVCRT:MSVCR100.dll
 0002:000000a8       __imp___dllonexit          000000018004c0a8     MSVCRT:MSVCR100.dll
 0002:000000b0       __imp__unlock              000000018004c0b0     MSVCRT:MSVCR100.dll
 0002:000000b8       __imp___clean_type_info_names_internal 000000018004c0b8     MSVCRT:MSVCR100.dll
 0002:000000c0       __imp___crt_debugger_hook  000000018004c0c0     MSVCRT:MSVCR100.dll
 0002:000000c8       __imp___CppXcptFilter      000000018004c0c8     MSVCRT:MSVCR100.dll
 0002:000000d0       __imp___C_specific_handler 000000018004c0d0     MSVCRT:MSVCR100.dll
 0002:000000d8       __imp__amsg_exit           000000018004c0d8     MSVCRT:MSVCR100.dll
 0002:000000e0       __imp__encoded_null        000000018004c0e0     MSVCRT:MSVCR100.dll
 0002:000000e8       __imp__initterm_e          000000018004c0e8     MSVCRT:MSVCR100.dll
 0002:000000f0       __imp__initterm            000000018004c0f0     MSVCRT:MSVCR100.dll
 0002:000000f8       __imp__malloc_crt          000000018004c0f8     MSVCRT:MSVCR100.dll
 0002:00000100       __imp_ldexp                000000018004c100     MSVCRT:MSVCR100.dll
 0002:00000108       __imp_strlen               000000018004c108     MSVCRT:MSVCR100.dll
 0002:00000110       __imp_calloc               000000018004c110     MSVCRT:MSVCR100.dll
 0002:00000118       __imp__setjmp              000000018004c118     MSVCRT:MSVCR100.dll
 0002:00000120       __imp_strrchr              000000018004c120     MSVCRT:MSVCR100.dll
 0002:00000128       __imp_ceil                 000000018004c128     MSVCRT:MSVCR100.dll
 0002:00000130       __imp_strncmp              000000018004c130     MSVCRT:MSVCR100.dll
 0002:00000138       __imp_longjmp              000000018004c138     MSVCRT:MSVCR100.dll
 0002:00000140       __imp_strncpy              000000018004c140     MSVCRT:MSVCR100.dll
 0002:00000148       __imp_memcpy               000000018004c148     MSVCRT:MSVCR100.dll
 0002:00000150       __imp_strcat               000000018004c150     MSVCRT:MSVCR100.dll
 0002:00000158       __imp_sprintf              000000018004c158     MSVCRT:MSVCR100.dll
 0002:00000160       __imp_strcmp               000000018004c160     MSVCRT:MSVCR100.dll
 0002:00000168       __imp_free                 000000018004c168     MSVCRT:MSVCR100.dll
 0002:00000170       __imp_malloc               000000018004c170     MSVCRT:MSVCR100.dll
 0002:00000178       __imp_memset               000000018004c178     MSVCRT:MSVCR100.dll
 0002:00000180       \177MSVCR100_NULL_THUNK_DATA 000000018004c180     MSVCRT:MSVCR100.dll
 0002:00000188       __imp_emlrtGetEnumUnderlyingArrayR2009a 000000018004c188     libemlrt:libemlrt.dll
 0002:00000190       __imp_emlrtIsEnumR2009a    000000018004c190     libemlrt:libemlrt.dll
 0002:00000198       __imp_emlrtCheckVsBuiltInR2012b 000000018004c198     libemlrt:libemlrt.dll
 0002:000001a0       __imp_emlrtTranslateUTF16MessagetoLCPstring 000000018004c1a0     libemlrt:libemlrt.dll
 0002:000001a8       __imp_emlrtForLoopVectorIsValidR2011b 000000018004c1a8     libemlrt:libemlrt.dll
 0002:000001b0       __imp_emlrtTranslateMessageIDtoLCPstring 000000018004c1b0     libemlrt:libemlrt.dll
 0002:000001b8       __imp_emlrtExtractMessageId 000000018004c1b8     libemlrt:libemlrt.dll
 0002:000001c0       __imp_emlrtCheckBuiltInR2012b 000000018004c1c0     libemlrt:libemlrt.dll
 0002:000001c8       __imp_emlrtDestroyRootTLS  000000018004c1c8     libemlrt:libemlrt.dll
 0002:000001d0       __imp_emlrtCreateRootTLS   000000018004c1d0     libemlrt:libemlrt.dll
 0002:000001d8       __imp_emlrtCheckEnumR2012b 000000018004c1d8     libemlrt:libemlrt.dll
 0002:000001e0       __imp_emlrtCreateEnumR2012b 000000018004c1e0     libemlrt:libemlrt.dll
 0002:000001e8       __imp_emlrtGetEnumElementR2009a 000000018004c1e8     libemlrt:libemlrt.dll
 0002:000001f0       __imp_emlrtCreateReference 000000018004c1f0     libemlrt:libemlrt.dll
 0002:000001f8       __imp_emlrtImportVsFiArrayR2009b 000000018004c1f8     libemlrt:libemlrt.dll
 0002:00000200       __imp_emlrtNameCapturePostProcessR2012a 000000018004c200     libemlrt:libemlrt.dll
 0002:00000208       \177libemlrt_NULL_THUNK_DATA 000000018004c208     libemlrt:libemlrt.dll
 0002:00000210       __imp_ssRegisterDataTypeFxpFSlopeFixExpBias 000000018004c210     libfixedpoint:libfixedpoint.dll
 0002:00000218       \177libfixedpoint_NULL_THUNK_DATA 000000018004c218     libfixedpoint:libfixedpoint.dll
 0002:00000220       __imp_mexFunctionName      000000018004c220     libmex:libmex.dll
 0002:00000228       __imp_mexMakeMemoryPersistent 000000018004c228     libmex:libmex.dll
 0002:00000230       __imp_mexGetVariable       000000018004c230     libmex:libmex.dll
 0002:00000238       __imp_mexPutVariable       000000018004c238     libmex:libmex.dll
 0002:00000240       __imp_mexSetTrapFlag       000000018004c240     libmex:libmex.dll
 0002:00000248       __imp_mexMakeArrayPersistent 000000018004c248     libmex:libmex.dll
 0002:00000250       __imp_mexErrMsgTxt         000000018004c250     libmex:libmex.dll
 0002:00000258       __imp_mexCallMATLAB        000000018004c258     libmex:libmex.dll
 0002:00000260       __imp_mexUnlock            000000018004c260     libmex:libmex.dll
 0002:00000268       __imp_mexIsLocked          000000018004c268     libmex:libmex.dll
 0002:00000270       __imp_mexWarnMsgTxt        000000018004c270     libmex:libmex.dll
 0002:00000278       __imp_mexLock              000000018004c278     libmex:libmex.dll
 0002:00000280       \177libmex_NULL_THUNK_DATA 000000018004c280     libmex:libmex.dll
 0002:00000288       __imp_muDoubleScalarPower  000000018004c288     libmwmathutil:libmwmathutil.dll
 0002:00000290       __imp_muDoubleScalarCos    000000018004c290     libmwmathutil:libmwmathutil.dll
 0002:00000298       __imp_muDoubleScalarSin    000000018004c298     libmwmathutil:libmwmathutil.dll
 0002:000002a0       __imp_muDoubleScalarAbs    000000018004c2a0     libmwmathutil:libmwmathutil.dll
 0002:000002a8       \177libmwmathutil_NULL_THUNK_DATA 000000018004c2a8     libmwmathutil:libmwmathutil.dll
 0002:000002b0       __imp_mxGetN               000000018004c2b0     libmx:libmx.dll
 0002:000002b8       __imp_mxGetM               000000018004c2b8     libmx:libmx.dll
 0002:000002c0       __imp_mxGetPr              000000018004c2c0     libmx:libmx.dll
 0002:000002c8       __imp_mxCalloc             000000018004c2c8     libmx:libmx.dll
 0002:000002d0       __imp_mxGetScalar          000000018004c2d0     libmx:libmx.dll
 0002:000002d8       __imp_mxIsLogical          000000018004c2d8     libmx:libmx.dll
 0002:000002e0       __imp_mxCreateLogicalScalar 000000018004c2e0     libmx:libmx.dll
 0002:000002e8       __imp_mxIsLogicalScalarTrue 000000018004c2e8     libmx:libmx.dll
 0002:000002f0       __imp_mxGetString_700      000000018004c2f0     libmx:libmx.dll
 0002:000002f8       __imp_mxCreateStringFromNChars_700 000000018004c2f8     libmx:libmx.dll
 0002:00000300       __imp_mxGetElementSize     000000018004c300     libmx:libmx.dll
 0002:00000308       __imp_mxCreateNumericArray_700 000000018004c308     libmx:libmx.dll
 0002:00000310       __imp_mxGetNumberOfDimensions_700 000000018004c310     libmx:libmx.dll
 0002:00000318       __imp_mxGetDimensions_700  000000018004c318     libmx:libmx.dll
 0002:00000320       __imp_mxCalcSingleSubscript_700 000000018004c320     libmx:libmx.dll
 0002:00000328       __imp_mxCreateStructArray_700 000000018004c328     libmx:libmx.dll
 0002:00000330       __imp_mxCreateNumericMatrix_700 000000018004c330     libmx:libmx.dll
 0002:00000338       __imp_mxArrayClassIDName   000000018004c338     libmx:libmx.dll
 0002:00000340       __imp_mxGetImagData        000000018004c340     libmx:libmx.dll
 0002:00000348       __imp_mxGetData            000000018004c348     libmx:libmx.dll
 0002:00000350       __imp_mxIsEmpty            000000018004c350     libmx:libmx.dll
 0002:00000358       __imp_mxIsNaN              000000018004c358     libmx:libmx.dll
 0002:00000360       __imp_mxGetFieldNumber     000000018004c360     libmx:libmx.dll
 0002:00000368       __imp_mxCreateStructMatrix_700 000000018004c368     libmx:libmx.dll
 0002:00000370       __imp_mxGetNumberOfFields  000000018004c370     libmx:libmx.dll
 0002:00000378       __imp_mxGetFieldNameByNumber 000000018004c378     libmx:libmx.dll
 0002:00000380       __imp_mxGetFieldByNumber_700 000000018004c380     libmx:libmx.dll
 0002:00000388       __imp_mxSetFieldByNumber_700 000000018004c388     libmx:libmx.dll
 0002:00000390       __imp_mxIsSparse           000000018004c390     libmx:libmx.dll
 0002:00000398       __imp_mxGetLogicals        000000018004c398     libmx:libmx.dll
 0002:000003a0       __imp_mxIsClass            000000018004c3a0     libmx:libmx.dll
 0002:000003a8       __imp_mxIsA                000000018004c3a8     libmx:libmx.dll
 0002:000003b0       __imp_mxIsStruct           000000018004c3b0     libmx:libmx.dll
 0002:000003b8       __imp_mxGetNumberOfElements 000000018004c3b8     libmx:libmx.dll
 0002:000003c0       __imp_mxGetField_700       000000018004c3c0     libmx:libmx.dll
 0002:000003c8       __imp_mxAddField           000000018004c3c8     libmx:libmx.dll
 0002:000003d0       __imp_mxSetField_700       000000018004c3d0     libmx:libmx.dll
 0002:000003d8       __imp_mxGetClassName       000000018004c3d8     libmx:libmx.dll
 0002:000003e0       __imp_mxGetCell_700        000000018004c3e0     libmx:libmx.dll
 0002:000003e8       __imp_mxSetCell_700        000000018004c3e8     libmx:libmx.dll
 0002:000003f0       __imp_mxCreateCellMatrix_700 000000018004c3f0     libmx:libmx.dll
 0002:000003f8       __imp_mxArrayToString      000000018004c3f8     libmx:libmx.dll
 0002:00000400       __imp_mxFree               000000018004c400     libmx:libmx.dll
 0002:00000408       __imp_mxIsComplex          000000018004c408     libmx:libmx.dll
 0002:00000410       __imp_mxIsNumeric          000000018004c410     libmx:libmx.dll
 0002:00000418       __imp_mxGetClassID         000000018004c418     libmx:libmx.dll
 0002:00000420       __imp_mxIsChar             000000018004c420     libmx:libmx.dll
 0002:00000428       __imp_mxGetString_730      000000018004c428     libmx:libmx.dll
 0002:00000430       __imp_mxDuplicateArray     000000018004c430     libmx:libmx.dll
 0002:00000438       __imp_mxDestroyArray       000000018004c438     libmx:libmx.dll
 0002:00000440       __imp_mxCreateStructMatrix_730 000000018004c440     libmx:libmx.dll
 0002:00000448       __imp_mxCreateString       000000018004c448     libmx:libmx.dll
 0002:00000450       __imp_mxSetField_730       000000018004c450     libmx:libmx.dll
 0002:00000458       __imp_mxCreateDoubleMatrix_730 000000018004c458     libmx:libmx.dll
 0002:00000460       __imp_mxCreateDoubleScalar 000000018004c460     libmx:libmx.dll
 0002:00000468       __imp_mxCreateDoubleMatrix_700 000000018004c468     libmx:libmx.dll
 0002:00000470       \177libmx_NULL_THUNK_DATA  000000018004c470     libmx:libmx.dll
 0002:00000478       __imp_utMalloc             000000018004c478     libut:libut.dll
 0002:00000480       __imp_utCPUtime            000000018004c480     libut:libut.dll
 0002:00000488       __imp_utVSNprintf          000000018004c488     libut:libut.dll
 0002:00000490       __imp_utFree               000000018004c490     libut:libut.dll
 0002:00000498       \177libut_NULL_THUNK_DATA  000000018004c498     libut:libut.dll
 0002:000004a0       __xc_a                     000000018004c4a0     MSVCRT:cinitexe.obj
 0002:000004a8       __xc_z                     000000018004c4a8     MSVCRT:cinitexe.obj
 0002:000004b0       __xi_a                     000000018004c4b0     MSVCRT:cinitexe.obj
 0002:000004c0       __xi_z                     000000018004c4c0     MSVCRT:cinitexe.obj
 0002:000004d0       __real@41e76e37e6c00000    000000018004c4d0     c1_pendubot_simulate_1_8_5_2017_fuzzy.obj
 0002:000004d8       __real@41d6e158ec400000    000000018004c4d8     c1_pendubot_simulate_1_8_5_2017_fuzzy.obj
 0002:000004e0       __real@41e9c3de0e600000    000000018004c4e0     c1_pendubot_simulate_1_8_5_2017_fuzzy.obj
 0002:000004e8       __real@41e50ee06d400000    000000018004c4e8     c1_pendubot_simulate_1_8_5_2017_fuzzy.obj
 0002:000004f0       __real@4024000000000000    000000018004c4f0     c1_pendubot_simulate_1_8_5_2017_fuzzy.obj
 0002:000004f8       __real@3ff0000000000000    000000018004c4f8     c1_pendubot_simulate_1_8_5_2017_fuzzy.obj
 0002:00000500       __real@3fd97d84901d1915    000000018004c500     c1_pendubot_simulate_1_8_5_2017_fuzzy.obj
 0002:00000508       __real@3fb396af038e29fa    000000018004c508     c1_pendubot_simulate_1_8_5_2017_fuzzy.obj
 0002:00000510       __real@0000000000000000    000000018004c510     c1_pendubot_simulate_1_8_5_2017_fuzzy.obj
 0002:00000520       __mask@@NegDouble@         000000018004c520     c1_pendubot_simulate_1_8_5_2017_fuzzy.obj
 0002:00000530       __real@3f1f4aa7ffc7fb9f    000000018004c530     c1_pendubot_simulate_1_8_5_2017_fuzzy.obj
 0002:00000538       __real@3f49304175181583    000000018004c538     c1_pendubot_simulate_1_8_5_2017_fuzzy.obj
 0002:00000540       __real@3ff921fb54442d18    000000018004c540     c1_pendubot_simulate_1_8_5_2017_fuzzy.obj
 0002:00000548       __real@3ec46a1dbfa959c8    000000018004c548     c1_pendubot_simulate_1_8_5_2017_fuzzy.obj
 0002:00000550       __real@3ec941a4cdf0b25c    000000018004c550     c1_pendubot_simulate_1_8_5_2017_fuzzy.obj
 0002:00000558       __real@3ef6b4dcc7eadb6e    000000018004c558     c1_pendubot_simulate_1_8_5_2017_fuzzy.obj
 0002:00000560       __real@3e304e341aed560c    000000018004c560     c1_pendubot_simulate_1_8_5_2017_fuzzy.obj
 0002:00000568       __real@40239eb851eb851f    000000018004c568     c1_pendubot_simulate_1_8_5_2017_fuzzy.obj
 0002:00000570       __real@3f7ff2e48e8a71de    000000018004c570     c1_pendubot_simulate_1_8_5_2017_fuzzy.obj
 0002:00000578       __real@3fa4c985f06f6944    000000018004c578     c1_pendubot_simulate_1_8_5_2017_fuzzy.obj
 0002:00000580       __real@3f598f1d3ed527e5    000000018004c580     c1_pendubot_simulate_1_8_5_2017_fuzzy.obj
 0002:00000588       __real@3f5f9f01b866e43b    000000018004c588     c1_pendubot_simulate_1_8_5_2017_fuzzy.obj
 0002:00000590       __real@3f86fa82e87d2c7c    000000018004c590     c1_pendubot_simulate_1_8_5_2017_fuzzy.obj
 0002:00000598       __real@4000000000000000    000000018004c598     c1_pendubot_simulate_1_8_5_2017_fuzzy.obj
 0002:000005a0       __real@41e387e925800000    000000018004c5a0     c2_pendubot_simulate_1_8_5_2017_fuzzy.obj
 0002:000005a8       __real@41d62645b2c00000    000000018004c5a8     c2_pendubot_simulate_1_8_5_2017_fuzzy.obj
 0002:000005b0       __real@41e79dbf46600000    000000018004c5b0     c2_pendubot_simulate_1_8_5_2017_fuzzy.obj
 0002:000005b8       __real@41de83e28a800000    000000018004c5b8     c2_pendubot_simulate_1_8_5_2017_fuzzy.obj
 0002:000005c0       __real@4014000000000000    000000018004c5c0     c2_pendubot_simulate_1_8_5_2017_fuzzy.obj
 0002:000005c8       __real@41ecdee94b800000    000000018004c5c8     c3_pendubot_simulate_1_8_5_2017_fuzzy.obj
 0002:000005d0       __real@41ea825ba6600000    000000018004c5d0     c3_pendubot_simulate_1_8_5_2017_fuzzy.obj
 0002:000005d8       __real@41a76b7892000000    000000018004c5d8     c3_pendubot_simulate_1_8_5_2017_fuzzy.obj
 0002:000005e0       __real@41e303a515400000    000000018004c5e0     c3_pendubot_simulate_1_8_5_2017_fuzzy.obj
 0002:000005e8       __real@41eb939cd7e00000    000000018004c5e8     c4_pendubot_simulate_1_8_5_2017_fuzzy.obj
 0002:000005f0       __real@41e95cf1fcc00000    000000018004c5f0     c4_pendubot_simulate_1_8_5_2017_fuzzy.obj
 0002:000005f8       __real@41ce7288a1800000    000000018004c5f8     c4_pendubot_simulate_1_8_5_2017_fuzzy.obj
 0002:00000600       __real@41ddb31943400000    000000018004c600     c4_pendubot_simulate_1_8_5_2017_fuzzy.obj
 0002:00000608       __real@4026000000000000    000000018004c608     c4_pendubot_simulate_1_8_5_2017_fuzzy.obj
 0002:00000610       __real@41e5c1cd52000000    000000018004c610     c5_pendubot_simulate_1_8_5_2017_fuzzy.obj
 0002:00000618       __real@41eeb2326ba00000    000000018004c618     c5_pendubot_simulate_1_8_5_2017_fuzzy.obj
 0002:00000620       __real@41c23b389e000000    000000018004c620     c5_pendubot_simulate_1_8_5_2017_fuzzy.obj
 0002:00000628       __real@41e2b56b61200000    000000018004c628     c5_pendubot_simulate_1_8_5_2017_fuzzy.obj
 0002:00000630       __real@bff0000000000000    000000018004c630     c5_pendubot_simulate_1_8_5_2017_fuzzy.obj
 0002:00000640       DYNAMIC_DIMENSION_DEF      000000018004c640     pendubot_simulate_1_8_5_2017_fuzzy_sfun_registry.obj
 0002:00000660       _ssBadLevel2InputAccessMsg 000000018004c660     pendubot_simulate_1_8_5_2017_fuzzy_sfun_registry.obj
 0002:000007f0       _ssBadLevel2DirectFeedMsg  000000018004c7f0     pendubot_simulate_1_8_5_2017_fuzzy_sfun_registry.obj
 0002:00000930       _ssBadLevel2DirectFeedSolutionMsg 000000018004c930     pendubot_simulate_1_8_5_2017_fuzzy_sfun_registry.obj
 0002:000009a0       _ssBadLevel2ZeroDirectFeedMsg 000000018004c9a0     pendubot_simulate_1_8_5_2017_fuzzy_sfun_registry.obj
 0002:00000ae0       _ssBadLevel2ZeroDirectFeedMsg2 000000018004cae0     pendubot_simulate_1_8_5_2017_fuzzy_sfun_registry.obj
 0002:00000bc8       __real@41602cbca0000000    000000018004cbc8     pendubot_simulate_1_8_5_2017_fuzzy_sfun_registry.obj
 0002:00000bd0       __real@41ea761f8ce00000    000000018004cbd0     pendubot_simulate_1_8_5_2017_fuzzy_sfun.obj
 0002:00000bd8       __real@41e2de75da200000    000000018004cbd8     pendubot_simulate_1_8_5_2017_fuzzy_sfun.obj
 0002:00000be0       __real@41e37df4f3200000    000000018004cbe0     pendubot_simulate_1_8_5_2017_fuzzy_sfun.obj
 0002:00000be8       __real@41b1f3994b000000    000000018004cbe8     pendubot_simulate_1_8_5_2017_fuzzy_sfun.obj
 0002:00000bf0       __real@41ed08af7be00000    000000018004cbf0     pendubot_simulate_1_8_5_2017_fuzzy_sfun.obj
 0002:00000bf8       __real@41d03fc151000000    000000018004cbf8     pendubot_simulate_1_8_5_2017_fuzzy_sfun.obj
 0002:00000c00       __real@41c439d4aa000000    000000018004cc00     pendubot_simulate_1_8_5_2017_fuzzy_sfun.obj
 0002:00000c08       __real@41ea8f1e72e00000    000000018004cc08     pendubot_simulate_1_8_5_2017_fuzzy_sfun.obj
 0002:00000c10       __real@41ba827878000000    000000018004cc10     pendubot_simulate_1_8_5_2017_fuzzy_sfun.obj
 0002:00000c18       __real@41d370541e800000    000000018004cc18     pendubot_simulate_1_8_5_2017_fuzzy_sfun.obj
 0002:00000c20       __real@41e2da2787a00000    000000018004cc20     pendubot_simulate_1_8_5_2017_fuzzy_sfun.obj
 0002:00000c28       __real@41d0948ddf400000    000000018004cc28     pendubot_simulate_1_8_5_2017_fuzzy_sfun.obj
 0002:00000c30       __real@41e68d2fa0400000    000000018004cc30     pendubot_simulate_1_8_5_2017_fuzzy_sfun.obj
 0002:00000c38       __real@41d7f05178c00000    000000018004cc38     pendubot_simulate_1_8_5_2017_fuzzy_sfun.obj
 0002:00000c40       __real@41ce83fee6000000    000000018004cc40     pendubot_simulate_1_8_5_2017_fuzzy_sfun.obj
 0002:00000c48       __real@41e7893b30800000    000000018004cc48     pendubot_simulate_1_8_5_2017_fuzzy_sfun.obj
 0002:00000c50       ??_C@_00CNPNBAHC@?$AA@     000000018004cc50     sfc_mex:sfc_mex.obj
 0002:00000c54       ??_C@_05DGLCPCBN@?$CFsx?$CFd?$AA@ 000000018004cc54     sfc_mex:sfc_mex.obj
 0002:00000c5c       ??_C@_02DPKJAMEF@?$CFd?$AA@ 000000018004cc5c     sfc_mex:sfc_mex.obj
 0002:00000c60       ??_C@_0CC@DJOAOECF@Unknown?5MATLAB?5error?5encountered@ 000000018004cc60     sfc_mex:sfc_mex.obj
 0002:00000c88       ??_C@_0CJ@DAIIKGLI@?$CFs?5in?5?$CFs?5should?5never?5be?5called?5@ 000000018004cc88     sfc_mex:sfc_mex.obj
 0002:00000cb8       ??_C@_0CE@ICKLNELB@Error?5calling?5MATLAB?5function?5?8?$CF@ 000000018004ccb8     sfc_mex:sfc_mex.obj
 0002:00000cdc       ??_C@_02DKCKIIND@?$CFs?$AA@ 000000018004ccdc     sfc_mex:sfc_mex.obj
 0002:00000ce0       ??_C@_07PHDIELCI@lasterr?$AA@ 000000018004cce0     sfc_mex:sfc_mex.obj
 0002:00000ce8       ??_C@_09HKCBALOK@embedded?4?$AA@ 000000018004cce8     sfc_mex:sfc_mex.obj
 0002:00000cf4       ??_C@_06BNJCAIGJ@double?$AA@ 000000018004ccf4     sfc_mex:sfc_mex.obj
 0002:00000cfc       ??_C@_06EJFMBPJF@single?$AA@ 000000018004ccfc     sfc_mex:sfc_mex.obj
 0002:00000d04       ??_C@_06KKKLBFKN@uint64?$AA@ 000000018004cd04     sfc_mex:sfc_mex.obj
 0002:00000d0c       ??_C@_05DIFFJEPM@int64?$AA@ 000000018004cd0c     sfc_mex:sfc_mex.obj
 0002:00000d14       ??_C@_06PKDKHAMA@uint32?$AA@ 000000018004cd14     sfc_mex:sfc_mex.obj
 0002:00000d1c       ??_C@_05GIMEPBJB@int32?$AA@ 000000018004cd1c     sfc_mex:sfc_mex.obj
 0002:00000d24       ??_C@_06JNNCGBKK@uint16?$AA@ 000000018004cd24     sfc_mex:sfc_mex.obj
 0002:00000d2c       ??_C@_05PCMOAPL@int16?$AA@ 000000018004cd2c     sfc_mex:sfc_mex.obj
 0002:00000d34       ??_C@_05BOGOCLFF@uint8?$AA@ 000000018004cd34     sfc_mex:sfc_mex.obj
 0002:00000d3c       ??_C@_04DCGBOBJJ@int8?$AA@ 000000018004cd3c     sfc_mex:sfc_mex.obj
 0002:00000d44       ??_C@_04KBDJOJNB@?$FL?$CFd?$FN?$AA@ 000000018004cd44     sfc_mex:sfc_mex.obj
 0002:00000d50       ??_C@_0CD@NFPEPNBJ@Cannot?5add?5field?5?$CFs?5to?5struct?5?$CFs@ 000000018004cd50     sfc_mex:sfc_mex.obj
 0002:00000d78       ??_C@_0CF@PLDCCEBG@Cannot?5get?5field?5?$CFs?5from?5struct?5@ 000000018004cd78     sfc_mex:sfc_mex.obj
 0002:00000da0       ??_C@_0CO@MFJLJCHI@Struct?5array?5?8?$CFs?8?5does?5not?5have?5@ 000000018004cda0     sfc_mex:sfc_mex.obj
 0002:00000dd0       ??_C@_0DF@IPGEGIDM@Object?5?8?$CFs?8?5is?5not?5a?5struct?3?5can@ 000000018004cdd0     sfc_mex:sfc_mex.obj
 0002:00000e08       ??_C@_0BL@KEKJNNL@MATLAB?5expression?5?8?$CFs?8?5?$CFs?4?$AA@ 000000018004ce08     sfc_mex:sfc_mex.obj
 0002:00000e30       ??_C@_0GH@JOEOEBFA@Size?5mismatch?5for?5?8?$CFs?8?5on?5dimens@ 000000018004ce30     sfc_mex:sfc_mex.obj
 0002:00000e98       ??_C@_04IAGNFIBA@size?$AA@ 000000018004ce98     sfc_mex:sfc_mex.obj
 0002:00000ea0       ??_C@_0DN@DNLDLJNN@is?5not?5of?5the?5correct?5class?3?5exp@ 000000018004cea0     sfc_mex:sfc_mex.obj
 0002:00000ee0       ??_C@_06POLMGHPK@isreal?$AA@ 000000018004cee0     sfc_mex:sfc_mex.obj
 0002:00000ee8       ??_C@_0CC@EDDDCJDC@is?5not?5of?5the?5correct?5complexnes@ 000000018004cee8     sfc_mex:sfc_mex.obj
 0002:00000f10       ??_C@_0CB@POBCEEOP@is?5not?5of?5the?5correct?5sparseness@ 000000018004cf10     sfc_mex:sfc_mex.obj
 0002:00000f38       ??_C@_0CC@JOFDGEBC@is?5not?5of?5the?5correct?5numerictyp@ 000000018004cf38     sfc_mex:sfc_mex.obj
 0002:00000f60       ??_C@_07MIMONDDE@isequal?$AA@ 000000018004cf60     sfc_mex:sfc_mex.obj
 0002:00000f68       ??_C@_0M@NAPEIPJI@numerictype?$AA@ 000000018004cf68     sfc_mex:sfc_mex.obj
 0002:00000f78       ??_C@_0BN@IMIABIKK@is?5not?5of?5the?5correct?5fimath?$AA@ 000000018004cf78     sfc_mex:sfc_mex.obj
 0002:00000f98       ??_C@_06LJOKAFHF@fimath?$AA@ 000000018004cf98     sfc_mex:sfc_mex.obj
 0002:00000fa0       ??_C@_0EP@IAFBLFNF@Stateflow?5Internal?5Error?3?5?6Error@ 000000018004cfa0     sfc_mex:sfc_mex.obj
 0002:00000ff0       ??_C@_02GFKODMMF@sf?$AA@   000000018004cff0     sfc_mex:sfc_mex.obj
 0002:00000ff8       ??_C@_08MJJBNONC@mxDecode?$AA@ 000000018004cff8     sfc_mex:sfc_mex.obj
 0002:00001010       ??_C@_0GH@OOBFJADG@Simulation?5stopped?5due?5to?5out?5of@ 000000018004d010     sfc_mex:sfc_mex.obj
 0002:00001080       ??_C@_0HC@JODLBNFO@Simulation?5stopped?5due?5to?5size?5m@ 000000018004d080     sfc_mex:sfc_mex.obj
 0002:00001100       ??_C@_0HC@PPOAOPGB@Simulation?5stopped?5due?5to?5size?5m@ 000000018004d100     sfc_mex:sfc_mex.obj
 0002:00001180       ??_C@_0JM@OFMOAAGL@Simulation?5stopped?5due?5to?5size?5m@ 000000018004d180     sfc_mex:sfc_mex.obj
 0002:00001220       ??_C@_0KC@ODCGHMPH@Simulation?5stopped?5due?5to?5size?5o@ 000000018004d220     sfc_mex:sfc_mex.obj
 0002:000012d0       ??_C@_0GO@BKNPNGBP@Subscripted?5assignment?5dimension@ 000000018004d2d0     sfc_mex:sfc_mex.obj
 0002:00001340       ??_C@_0DJ@MEDANBMA@Enable?5debugging?5to?5pinpoint?5the@ 000000018004d340     sfc_mex:sfc_mex.obj
 0002:0000137c       ??_C@_01CLKCMJKC@?5?$AA@   000000018004d37c     sfc_mex:sfc_mex.obj
 0002:00001380       ??_C@_0BAO@DDKKHLGF@Matrix?$CImatrix?$CJ?5subscript?5turned?5@ 000000018004d380     sfc_mex:sfc_mex.obj
 0002:00001490       ??_C@_0BAO@MGKOAKHL@Vector?$CIvector?$CJ?5subscript?5turned?5@ 000000018004d490     sfc_mex:sfc_mex.obj
 0002:000015a0       ??_C@_0FA@KAHDAHHI@Cannot?5determine?5the?5exact?5numbe@ 000000018004d5a0     sfc_mex:sfc_mex.obj
 0002:000015f0       ??_C@_0FC@HJKNPCCF@Negative?5value?5detected?4?5Enable?5@ 000000018004d5f0     sfc_mex:sfc_mex.obj
 0002:00001648       ??_C@_0DK@JJKHINMK@Overflow?5detected?4?5Enable?5debugg@ 000000018004d648     sfc_mex:sfc_mex.obj
 0002:00001690       ??_C@_0EA@POIJMBCP@Divide?5by?5zero?5detected?4?5Enable?5@ 000000018004d690     sfc_mex:sfc_mex.obj
 0002:000016d0       ??_C@_0EK@CFEMECLL@Nonconforming?5enum?5value?5detecte@ 000000018004d6d0     sfc_mex:sfc_mex.obj
 0002:00001720       ??_C@_0EE@BPGAOMO@Size?5mismatch?5for?5MATLAB?5express@ 000000018004d720     sfc_mex:sfc_mex.obj
 0002:00001770       ??_C@_0EJ@KLNPHOFG@Dimension?5of?5fixed?5size?5one?5?$CI1?$CJ?5@ 000000018004d770     sfc_mex:sfc_mex.obj
 0002:000017c0       ??_C@_07JFPGMOK@fprintf?$AA@ 000000018004d7c0     sfc_mex:sfc_mex.obj
 0002:000017d0       ??_C@_0FE@EHCFPDEG@In?5MATLAB?5expression?5?8?$CFs?8?0?5field@ 000000018004d7d0     sfc_mex:sfc_mex.obj
 0002:00001828       ??_C@_0DE@IJIFCHLH@In?5MATLAB?5expression?5?8?$CFs?8?0?5field@ 000000018004d828     sfc_mex:sfc_mex.obj
 0002:00001860       ??_C@_0FK@JKPMKGDE@MATLAB?5expression?5?8?$CFs?8?5does?5not?5@ 000000018004d860     sfc_mex:sfc_mex.obj
 0002:000018bc       ??_C@_06PBJBIPGK@struct?$AA@ 000000018004d8bc     sfc_mex:sfc_mex.obj
 0002:000018c8       ??_C@_0O@NFNPPCGN@isfimathlocal?$AA@ 000000018004d8c8     sfc_mex:sfc_mex.obj
 0002:000018d8       ??_C@_0M@MLCGNPLD@embedded?4fi?$AA@ 000000018004d8d8     sfc_mex:sfc_mex.obj
 0002:000018e8       ??_C@_0M@EGMNDJHO@?$CFs?5?$DN?5?$CF?415g?6?$AA@ 000000018004d8e8     sfc_mex:sfc_mex.obj
 0002:000018f4       ??_C@_03OFAPEBGM@?$CFs?6?$AA@ 000000018004d8f4     sfc_mex:sfc_mex.obj
 0002:000018f8       ??_C@_0CL@LLBJDFID@failed?5sf_assertion?5in?5?$CFs?5at?5lin@ 000000018004d8f8     sfc_mex:sfc_mex.obj
 0002:00001930       ??_C@_0EJ@MIHEOKKA@?8?$CFs?8?3?5Array?5with?5number?5of?5dimen@ 000000018004d930     sfc_mex:sfc_mex.obj
 0002:00001980       ??_C@_09JCLLFAHO@sfc_mex?4c?$AA@ 000000018004d980     sfc_mex:sfc_mex.obj
 0002:00001990       ??_C@_0O@FCFMOEOA@aNumDims?5?$DO?$DN?50?$AA@ 000000018004d990     sfc_mex:sfc_mex.obj
 0002:000019a0       ??_C@_0CK@KDIMGCCA@?8?$CFs?8?3?5Sparse?5matrices?5are?5not?5su@ 000000018004d9a0     sfc_mex:sfc_mex.obj
 0002:000019d0       ??_C@_0CI@KBLJAMNB@MATLAB?5expression?5?8?$CFs?8?5is?5not?5nu@ 000000018004d9d0     sfc_mex:sfc_mex.obj
 0002:000019f8       ??_C@_0P@LCMMCGDM@aSrcMx?5?$CB?$DN?5NULL?$AA@ 000000018004d9f8     sfc_mex:sfc_mex.obj
 0002:00001a10       ??_C@_0EI@HJNNACGI@Eval?5of?5MATLAB?5expression?5?8?$CFs?8?5i@ 000000018004da10     sfc_mex:sfc_mex.obj
 0002:00001a58       ??_C@_0DM@BJICAGGK@Stateflow?5currently?5only?5support@ 000000018004da58     sfc_mex:sfc_mex.obj
 0002:00001a94       ??_C@_05LAPONLG@false?$AA@ 000000018004da94     sfc_mex:sfc_mex.obj
 0002:00001a9c       ??_C@_03LHCJEHON@nan?$AA@  000000018004da9c     sfc_mex:sfc_mex.obj
 0002:00001aa0       ??_C@_04BHIIPFEC@base?$AA@ 000000018004daa0     sfc_mex:sfc_mex.obj
 0002:00001aa8       ??_C@_06PLMANNP@evalin?$AA@ 000000018004daa8     sfc_mex:sfc_mex.obj
 0002:00001ab0       ??_C@_06GFECGKEO@caller?$AA@ 000000018004dab0     sfc_mex:sfc_mex.obj
 0002:00001ab8       ??_C@_0CM@LOMLNLMC@Invalid?5workspace?5type?5for?5sf_ma@ 000000018004dab8     sfc_mex:sfc_mex.obj
 0002:00001ae4       ??_C@_01GBGANLPD@0?$AA@    000000018004dae4     sfc_mex:sfc_mex.obj
 0002:00001ae8       ??_C@_06FJKEMHGD@global?$AA@ 000000018004dae8     sfc_mex:sfc_mex.obj
 0002:00001af0       ??_C@_08KHPDDPHG@getfield?$AA@ 000000018004daf0     sfc_mex:sfc_mex.obj
 0002:00001afc       ??_C@_05LPIJGKJ@Value?$AA@ 000000018004dafc     sfc_mex:sfc_mex.obj
 0002:00001b08       ??_C@_0BH@HNIMIIFD@Unknown?5workspace?5type?$AA@ 000000018004db08     sfc_mex:sfc_mex.obj
 0002:00001b20       ??_C@_0DA@IPMLFPJI@MATLAB?5expression?5?8?$CFs?8?5could?5not@ 000000018004db20     sfc_mex:sfc_mex.obj
 0002:00001b50       ??_C@_0EB@HHPLBHBA@Parameter?5value?5out?5of?5bounds?4?5?$CF@ 000000018004db50     sfc_mex:sfc_mex.obj
 0002:00001b98       ??_C@_0CB@DBMOOMDL@Unsupported?5class?5type?5?$CFs?5for?5?$CFs@ 000000018004db98     sfc_mex:sfc_mex.obj
 0002:00001bc0       ??_C@_0BI@OPNKAIOC@mxIsComplex?$CImxArrayPtr?$CJ?$AA@ 000000018004dbc0     sfc_mex:sfc_mex.obj
 0002:00001be0       ??_C@_0GA@OFLPCMBM@Stateflow?5Runtime?5Warning?3?5Loss?5@ 000000018004dbe0     sfc_mex:sfc_mex.obj
 0002:00001c40       __real@3810000000000000    000000018004dc40     sfc_mex:sfc_mex.obj
 0002:00001c48       __real@47efffffe0000000    000000018004dc48     sfc_mex:sfc_mex.obj
 0002:00001c50       __real@c060000000000000    000000018004dc50     sfc_mex:sfc_mex.obj
 0002:00001c58       __real@405fc00000000000    000000018004dc58     sfc_mex:sfc_mex.obj
 0002:00001c60       __real@406fe00000000000    000000018004dc60     sfc_mex:sfc_mex.obj
 0002:00001c68       __real@c0e0000000000000    000000018004dc68     sfc_mex:sfc_mex.obj
 0002:00001c70       __real@40dfffc000000000    000000018004dc70     sfc_mex:sfc_mex.obj
 0002:00001c78       __real@40efffe000000000    000000018004dc78     sfc_mex:sfc_mex.obj
 0002:00001c80       __real@c1e0000000000000    000000018004dc80     sfc_mex:sfc_mex.obj
 0002:00001c88       __real@41dfffffffc00000    000000018004dc88     sfc_mex:sfc_mex.obj
 0002:00001c90       __real@41efffffffe00000    000000018004dc90     sfc_mex:sfc_mex.obj
 0002:00001c98       ??_C@_0DO@JIJMNCAH@Class?5mismatch?5for?5variable?5?8?$CFs?8@ 000000018004dc98     sfc_mex:sfc_mex.obj
 0002:00001cd8       ??_C@_03BBKEAIF@?$DP?$DP?$DP?$AA@ 000000018004dcd8     sfc_mex:sfc_mex.obj
 0002:00001ce0       ??_C@_0DE@HICLJLJO@Assignment?5of?5complex?5data?5to?5no@ 000000018004dce0     sfc_mex:sfc_mex.obj
 0002:00001d18       ??_C@_0CF@NHFFCIEB@MATLAB?5function?5?8?$CFs?8?5returned?5NU@ 000000018004dd18     sfc_mex:sfc_mex.obj
 0002:00001d40       ??_C@_0GP@JPKMBIEI@Array?5bounds?5error?5in?5MATLAB?5exp@ 000000018004dd40     sfc_mex:sfc_mex.obj
 0002:00001db0       ??_C@_0P@FLJFOPHI@pIndex?$FLi?$FN?5?$DO?$DN?50?$AA@ 000000018004ddb0     sfc_mex:sfc_mex.obj
 0002:00001dc0       ??_C@_0DI@IGEABFHB@MATLAB?5expression?5?8?$CFs?8?5has?5?$CFd?5di@ 000000018004ddc0     sfc_mex:sfc_mex.obj
 0002:00001df8       ??_C@_0L@EFLJKPA@mxArrayPtr?$AA@ 000000018004ddf8     sfc_mex:sfc_mex.obj
 0002:00001e08       ??_C@_0CK@FHKKOEPH@numDims?5?$DO?$DN?50?5?$CG?$CG?5numDims?5?$DM?$DN?5MAX_D@ 000000018004de08     sfc_mex:sfc_mex.obj
 0002:00001e40       ??_C@_0EM@MPIDLJBF@MATLAB?5expression?5?8?$CFs?8?5subscript@ 000000018004de40     sfc_mex:sfc_mex.obj
 0002:00001e8c       ??_C@_04IGKKBJEE@?$DN?$CFg?$DL?$AA@ 000000018004de8c     sfc_mex:sfc_mex.obj
 0002:00001e94       ??_C@_01PKGAHCOL@?$CJ?$AA@ 000000018004de94     sfc_mex:sfc_mex.obj
 0002:00001e98       ??_C@_03LEIBKMN@?0?$CFd?$AA@ 000000018004de98     sfc_mex:sfc_mex.obj
 0002:00001e9c       ??_C@_03IECKINJK@?$CI?$CFd?$AA@ 000000018004de9c     sfc_mex:sfc_mex.obj
 0002:00001ea0       ??_C@_0FB@HKJNNBFK@Stateflow?5ml?5type?5data?5?8?$CFs?8?5subs@ 000000018004dea0     sfc_mex:sfc_mex.obj
 0002:00001ef8       ??_C@_0CN@HPHHCDPK@Stateflow?5ml?5type?5data?5?8?$CFs?8?5is?5n@ 000000018004def8     sfc_mex:sfc_mex.obj
 0002:00001f28       ??_C@_0CG@JIOBALFE@Stateflow?5ml?5type?5data?5?8?$CFs?8?5is?5e@ 000000018004df28     sfc_mex:sfc_mex.obj
 0002:00001f50       ??_C@_0BD@GAHDCPBG@mxArrayPtr?5?$CB?$DN?5NULL?$AA@ 000000018004df50     sfc_mex:sfc_mex.obj
 0002:00001f68       ??_C@_0CF@HCINMAFF@result?5?$DN?5mxCreateDoubleScalar?$CIva@ 000000018004df68     sfc_mex:sfc_mex.obj
 0002:00001f90       ??_C@_0BF@GAJKLFOH@fixpt_lower_mx_array?$AA@ 000000018004df90     sfc_mex:sfc_mex.obj
 0002:00001fa8       ??_C@_02FINOOIBE@Cg?$AA@   000000018004dfa8     sfc_mex:sfc_mex.obj
 0002:00001fb0       ??_C@_09GIFEIFFL@sfprivate?$AA@ 000000018004dfb0     sfc_mex:sfc_sf.obj
 0002:00001fc0       ??_C@_0CC@JDELABLI@get_machine_and_chart_file_numbe@ 000000018004dfc0     sfc_mex:sfc_sf.obj
 0002:00001fe8       ??_C@_0BO@JCKKMPIB@get_sfun_block_specialization?$AA@ 000000018004dfe8     sfc_mex:sfc_sf.obj
 0002:00002010       ??_C@_0FP@OGBKADON@The?5chart?5name?5?4?4?4?$CFs?5is?5not?5pres@ 000000018004e010     sfc_mex:sfc_sf.obj
 0002:00002070       ??_C@_0FM@KEMGDKHM@The?5chart?5name?5?$CFs?5is?5not?5present@ 000000018004e070     sfc_mex:sfc_sf.obj
 0002:000020d0       ??_C@_0BD@NMFAPBEK@mdlInitializeSizes?$AA@ 000000018004e0d0     sfc_mex:sfc_sf.obj
 0002:000020e4       ??_C@_06EJFCAODB@sfc_sf?$AA@ 000000018004e0e4     sfc_mex:sfc_sf.obj
 0002:000020f0       ??_C@_0BJ@PBIFPMMD@mdlInitializeSampleTimes?$AA@ 000000018004e0f0     sfc_mex:sfc_sf.obj
 0002:00002110       ??_C@_0FI@CPPGBPPK@Stateflow?5Internal?5Error?3?5?6Error@ 000000018004e110     sfc_mex:sfc_sf.obj
 0002:00002168       ??_C@_0CN@GACCLMJH@preload_infomatman_for_rtw_optim@ 000000018004e168     sfc_mex:sfc_sf.obj
 0002:00002198       ??_C@_07CFINJGKH@Private?$AA@ 000000018004e198     sfc_mex:sfc_sf.obj
 0002:000021a0       ??_C@_0GC@KEKNFKIJ@Stateflow?5Internal?5Error?3?5?6rtw_o@ 000000018004e1a0     sfc_mex:sfc_sf.obj
 0002:00002210       ??_C@_0EK@MLFDFPLJ@Stateflow?5Internal?5Error?3?5?6Inter@ 000000018004e210     sfc_mex:sfc_sf.obj
 0002:00002260       ??_C@_0BG@PNKGMGHF@rtw_optimization_info?$AA@ 000000018004e260     sfc_mex:sfc_sf.obj
 0002:00002278       ??_C@_0BA@PHPHFLPF@chart_inlinable?$AA@ 000000018004e278     sfc_mex:sfc_sf.obj
 0002:00002290       ??_C@_0MB@KGDKCEKF@Stateflow?5Internal?5Error?3?5?6Numbe@ 000000018004e290     sfc_mex:sfc_sf.obj
 0002:00002360       ??_C@_0GN@DNCJEGHD@Stateflow?5Internal?5Error?3?5?6Error@ 000000018004e360     sfc_mex:sfc_sf.obj
 0002:000023d0       ??_C@_0CA@GOKFFBBO@outputEventsWithMultipleCallers?$AA@ 000000018004e3d0     sfc_mex:sfc_sf.obj
 0002:000023f0       ??_C@_0LH@NDHODBLK@Stateflow?5Internal?5Error?3?5?6Numbe@ 000000018004e3f0     sfc_mex:sfc_sf.obj
 0002:000024a8       ??_C@_0BB@GEEDBOGK@reusable_outputs?$AA@ 000000018004e4a8     sfc_mex:sfc_sf.obj
 0002:000024c0       ??_C@_0II@FEBCOBGA@Stateflow?5Internal?5Error?3?5?6Numbe@ 000000018004e4c0     sfc_mex:sfc_sf.obj
 0002:00002548       ??_C@_0BG@HMMHPAKE@expressionable_inputs?$AA@ 000000018004e548     sfc_mex:sfc_sf.obj
 0002:00002560       ??_C@_0BB@MBBOKNEL@listen_for_ctrlc?$AA@ 000000018004e560     sfc_mex:sfc_sf.obj
 0002:00002574       ??_C@_03LOANPFAI@mex?$AA@  000000018004e574     sfc_mex:sfc_sf.obj
 0002:00002578       ??_C@_07HLHKBCBI@sfdebug?$AA@ 000000018004e578     sfc_mex:sfc_sf.obj
 0002:00002580       ??_C@_07MFNNEMOJ@drawnow?$AA@ 000000018004e580     sfc_mex:sfc_sf.obj
 0002:00002588       __real@3fd3333333333333    000000018004e588     sfc_mex:sfc_sf.obj
 0002:00002590       ??_C@_0DG@OJBAPEMA@Internal?5Error?3?5paramsIndex?5?$DN?5?$CFd@ 000000018004e590     sfc_mex:sfc_sf.obj
 0002:000025d0       ??_C@_0BAI@GPDPHGCD@Cannot?5broadcast?5function?5call?5o@ 000000018004e5d0     sfc_mex:sfc_sf.obj
 0002:000026e0       ??_C@_0BBC@NGKHEJAF@Cannot?5enable?1disable?5function?5c@ 000000018004e6e0     sfc_mex:sfc_sf.obj
 0002:000027f8       ??_C@_08HDNBGBNP@bitWidth?$AA@ 000000018004e7f8     sfc_mex:sfc_sf.obj
 0002:00002808       ??_C@_0BG@MDDFDLDC@resolveToSignalObject?$AA@ 000000018004e808     sfc_mex:sfc_sf.obj
 0002:00002820       ??_C@_07KHBFOCMF@varName?$AA@ 000000018004e820     sfc_mex:sfc_sf.obj
 0002:00002828       ??_C@_09LHPHPAOE@isComplex?$AA@ 000000018004e828     sfc_mex:sfc_sf.obj
 0002:00002838       ??_C@_0CM@OAMAJMIG@Failed?5to?5register?5type?5?8?$CFs?8?5wit@ 000000018004e838     sfc_mex:sfc_sf.obj
 0002:00002868       ??_C@_08MLIGMCAH@typeSize?$AA@ 000000018004e868     sfc_mex:sfc_sf.obj
 0002:00002878       ??_C@_0BI@OFLHAMB@vector_of_void_pointers?$AA@ 000000018004e878     sfc_mex:sfc_sf.obj
 0002:00002890       ??_C@_04NBAGBPGE@bias?$AA@ 000000018004e890     sfc_mex:sfc_sf.obj
 0002:00002898       ??_C@_08EGJNFMPO@exponent?$AA@ 000000018004e898     sfc_mex:sfc_sf.obj
 0002:000028a4       ??_C@_05LAHHKLJI@slope?$AA@ 000000018004e8a4     sfc_mex:sfc_sf.obj
 0002:000028b0       ??_C@_0L@EMMELFNN@wordLength?$AA@ 000000018004e8b0     sfc_mex:sfc_sf.obj
 0002:000028c0       ??_C@_08EJEJGLGA@isSigned?$AA@ 000000018004e8c0     sfc_mex:sfc_sf.obj
 0002:000028cc       ??_C@_05LFJLPLPG@fixpt?$AA@ 000000018004e8cc     sfc_mex:sfc_sf.obj
 0002:000028d8       ??_C@_07GOBOHMJA@boolean?$AA@ 000000018004e8d8     sfc_mex:sfc_sf.obj
 0002:000028e0       ??_C@_04GPMDFGEJ@type?$AA@ 000000018004e8e0     sfc_mex:sfc_sf.obj
 0002:000028e8       ??_C@_0O@EIPJLOAA@extModeUpload?$AA@ 000000018004e8e8     sfc_mex:sfc_sf.obj
 0002:000028f8       __real@43e0000000000000    000000018004e8f8     sfc_mex:sfc_sf.obj
 0002:00002900       ??_C@_03PLHFFLIH@ptr?$AA@  000000018004e900     sfc_mex:sfc_sf.obj
 0002:00002908       ??_C@_0BC@HMCIKMPA@requiredStackSize?$AA@ 000000018004e908     sfc_mex:sfc_sf.obj
 0002:00002920       ??_C@_0CB@OCGIMAKA@RegisterMachineParentedDataDwork@ 000000018004e920     sfc_mex:sfc_sf.obj
 0002:00002948       ??_C@_0BD@LFPAKDFC@machineDataVarInfo?$AA@ 000000018004e948     sfc_mex:sfc_sf.obj
 0002:00002960       ??_C@_09GAJBGLOB@dworkInfo?$AA@ 000000018004e960     sfc_mex:sfc_sf.obj
 0002:00002970       sf_uint_bits_log2          000000018004e970     sfc_debug:sfcdebug.obj
 0002:00002990       ??_C@_04GKMJMOBJ@disp?$AA@ 000000018004e990     sfc_debug:sfcdebug.obj
 0002:00002998       ??_C@_0DJ@GEKCDEED@Runtime?5size?5mismatch?5for?5dimens@ 000000018004e998     sfc_debug:sfcdebug.obj
 0002:000029d8       ??_C@_0N@IHFJDIPG@load_machine?$AA@ 000000018004e9d8     sfc_debug:sfcdebug.obj
 0002:000029e8       ??_C@_0P@NOFOFJMO@ScriptCacheGet?$AA@ 000000018004e9e8     sfc_debug:sfcdebug.obj
 0002:000029f8       ??_C@_0P@HCIIHGKN@simulationTime?$AA@ 000000018004e9f8     sfc_debug:sfcdebug.obj
 0002:00002a08       ??_C@_06MBJIKMHL@isSend?$AA@ 000000018004ea08     sfc_debug:sfcdebug.obj
 0002:00002a10       ??_C@_0BC@HKLNGIIJ@messagePortNumber?$AA@ 000000018004ea10     sfc_debug:sfcdebug.obj
 0002:00002a28       ??_C@_07KGNNMFDL@chartId?$AA@ 000000018004ea28     sfc_debug:sfcdebug.obj
 0002:00002a30       ??_C@_0BD@LPIHANBP@State?5Entry?5Action?$AA@ 000000018004ea30     sfc_debug:sfcdebug.obj
 0002:00002a48       ??_C@_0BE@EDAKPKIF@State?5During?5Action?$AA@ 000000018004ea48     sfc_debug:sfcdebug.obj
 0002:00002a60       ??_C@_0BC@FKIGLKJE@State?5Exit?5Action?$AA@ 000000018004ea60     sfc_debug:sfcdebug.obj
 0002:00002a74       ??_C@_04CGFJFPFD@none?$AA@ 000000018004ea74     sfc_debug:sfcdebug.obj
 0002:00002a80       ??_C@_0BD@JMJALEKH@Transition?5Trigger?$AA@ 000000018004ea80     sfc_debug:sfcdebug.obj
 0002:00002a98       ??_C@_0BO@JIGLNAHF@Transition?5Guarding?5Condition?$AA@ 000000018004ea98     sfc_debug:sfcdebug.obj
 0002:00002ab8       ??_C@_0BB@ODEGBFLN@Condition?5Action?$AA@ 000000018004eab8     sfc_debug:sfcdebug.obj
 0002:00002ad0       ??_C@_0BC@EPJNNAPA@Transition?5Action?$AA@ 000000018004ead0     sfc_debug:sfcdebug.obj
 0002:00002ae8       ??_C@_0DI@JGHJOLLJ@INTERNAL?5ERROR?4?5Failed?5assertion@ 000000018004eae8     sfc_debug:sfcdebug.obj
 0002:00002b20       ??_C@_01EEMJAFIK@?6?$AA@   000000018004eb20     sfc_debug:sfcdebug.obj
 0002:00002b28       ??_C@_0P@HHNBJNJA@context_string?$AA@ 000000018004eb28     sfc_debug:sfcdebug.obj
 0002:00002b38       ??_C@_0BN@PMGOFJAJ@shouldAlwaysHonorBreakpoints?$AA@ 000000018004eb38     sfc_debug:sfcdebug.obj
 0002:00002b58       ??_C@_0DL@EPKGPGLC@?$CImachine?9?$DOdataCompInfo?4fixedPoin@ 000000018004eb58     sfc_debug:sfcdebug.obj
 0002:00002b98       ??_C@_0L@GJHMCDGO@sfcdebug?4c?$AA@ 000000018004eb98     sfc_debug:sfcdebug.obj
 0002:00002ba8       ??_C@_0DE@CBCLKIAM@?$CImachine?9?$DOdataCompInfo?4isComplex@ 000000018004eba8     sfc_debug:sfcdebug.obj
 0002:00002be0       ??_C@_0DP@MDOJBFKE@?$CIinstance?9?$DOdataCompInfo?4fixedPoi@ 000000018004ebe0     sfc_debug:sfcdebug.obj
 0002:00002c20       ??_C@_0DM@KFHGIBMB@?$CIinstance?9?$DOdataCompInfo?4fixedPoi@ 000000018004ec20     sfc_debug:sfcdebug.obj
 0002:00002c60       ??_C@_0DF@IIPJPBAH@?$CIinstance?9?$DOdataCompInfo?4isComple@ 000000018004ec60     sfc_debug:sfcdebug.obj
 0002:00002c98       ??_C@_0DA@OMEPAHNH@?$CIchart?9?$DOdata?4outputDataFlags?$CJ?4le@ 000000018004ec98     sfc_debug:sfcdebug.obj
 0002:00002cc8       ??_C@_0CP@JPBDBJBK@?$CIchart?9?$DOdata?4inputDataFlags?$CJ?4len@ 000000018004ecc8     sfc_debug:sfcdebug.obj
 0002:00002cf8       ??_C@_03KGJNKAJD@lic?$AA@  000000018004ecf8     sfc_debug:sfcdebug.obj
 0002:00002cfc       ??_C@_04PNMLDJAE@ense?$AA@ 000000018004ecfc     sfc_debug:sfcdebug.obj
 0002:00002d08       ??_C@_0L@ONMHLBPB@?$CFs?$CFs?$CFslbox?$AA@ 000000018004ed08     sfc_debug:sfcdebug.obj
 0002:00002d14       ??_C@_04CLOJJEIM@fixe?$AA@ 000000018004ed14     sfc_debug:sfcdebug.obj
 0002:00002d1c       ??_C@_05CBHOIFCP@t_too?$AA@ 000000018004ed1c     sfc_debug:sfcdebug.obj
 0002:00002d24       ??_C@_06MGFNEDEJ@d_poin?$AA@ 000000018004ed24     sfc_debug:sfcdebug.obj
 0002:00002d2c       ??_C@_04HDOCAJNK@?$CFs?$CFs?$AA@ 000000018004ed2c     sfc_debug:sfcdebug.obj
 0002:00002d34       ??_C@_04BJBBOLDM@chec?$AA@ 000000018004ed34     sfc_debug:sfcdebug.obj
 0002:00002d3c       ??_C@_04KNBDLPKC@kout?$AA@ 000000018004ed3c     sfc_debug:sfcdebug.obj
 0002:00002d48       ??_C@_0BA@FKECJMCE@active_instance?$AA@ 000000018004ed48     sfc_debug:sfcdebug.obj
 0002:00002d58       ??_C@_0DD@MJFCMKPO@transCnt?5?$DN?$DN?5instance?9?$DOcvToolIds?4@ 000000018004ed58     sfc_debug:sfcdebug.obj
 0002:00002d90       ??_C@_0CO@MONEMJEL@stateCnt?5?$DN?$DN?5instance?9?$DOcvToolIds?4@ 000000018004ed90     sfc_debug:sfcdebug.obj
 0002:00002dc0       ??_C@_0O@ELHBEDAD@init_debugger?$AA@ 000000018004edc0     sfc_debug:sfcdebug.obj
 0002:00002dd0       ??_C@_0L@PKOFOKNN@break_here?$AA@ 000000018004edd0     sfc_debug:sfcdebug.obj
 0002:00002de0       ??_C@_0BH@KBPHNGCH@script?4activeMachineId?$AA@ 000000018004ede0     sfc_debug:sfcdebug.obj
 0002:00002df8       ??_C@_03KCHOJKKI@set?$AA@  000000018004edf8     sfc_debug:sfcdebug.obj
 0002:00002e00       ??_C@_0DD@PKMAPHBF@?$CImachine?9?$DOdata?4watchFlags?$CJ?4lengt@ 000000018004ee00     sfc_debug:sfcdebug.obj
 0002:00002e40       ??_C@_0FE@KLPHIMDI@?$CIchart?9?$DOdata?4watchFlags?$CJ?4length?$DO@ 000000018004ee40     sfc_debug:sfcdebug.obj
 0002:00002e98       ??_C@_0BO@GFBPGEIL@bufferSizeGet?5?$DN?$DN?5totalSizeGet?$AA@ 000000018004ee98     sfc_debug:sfcdebug.obj
 0002:00002eb8       ??_C@_0BO@BEEPOEDP@bufferSizeSet?5?$DN?$DN?5totalSizeSet?$AA@ 000000018004eeb8     sfc_debug:sfcdebug.obj
 0002:00002ed8       ??_C@_0BG@NNAKOPEK@get_script_line_count?$AA@ 000000018004eed8     sfc_debug:sfcdebug.obj
 0002:00002ef0       ??_C@_0BJ@GADAHKGG@temporal_threshold_error?$AA@ 000000018004eef0     sfc_debug:sfcdebug.obj
 0002:00002f10       ??_C@_0BK@KABIOMCC@transition_conflict_error?$AA@ 000000018004ef10     sfc_debug:sfcdebug.obj
 0002:00002f30       ??_C@_0BK@HLPANOPJ@state_inconsistency_error?$AA@ 000000018004ef30     sfc_debug:sfcdebug.obj
 0002:00002f50       ??_C@_0BA@PCEGODO@cycle_detection?$AA@ 000000018004ef50     sfc_debug:sfcdebug.obj
 0002:00002f60       ??_C@_0CP@HMOGACCG@Simulation?5stopped?5due?5to?5out?5of@ 000000018004ef60     sfc_debug:sfcdebug.obj
 0002:00002f90       ??_C@_0BD@LFFFHIJG@array_bounds_error?$AA@ 000000018004ef90     sfc_debug:sfcdebug.obj
 0002:00002fa8       ??_C@_0O@IENBAMNA@runtime_error?$AA@ 000000018004efa8     sfc_debug:sfcdebug.obj
 0002:00002fb8       ??_C@_0CC@EDKHOOPE@Call?5to?5MATLAB?5function?5aborted?3@ 000000018004efb8     sfc_debug:sfcdebug.obj
 0002:00002fe0       ??_C@_0DJ@JBGHLJFL@Simulation?5stopped?5due?5to?5size?5m@ 000000018004efe0     sfc_debug:sfcdebug.obj
 0002:00003020       ??_C@_0DJ@EAKPCDBG@Simulation?5stopped?5due?5to?5size?5m@ 000000018004f020     sfc_debug:sfcdebug.obj
 0002:00003060       ??_C@_0GD@BJCLDBKO@Simulation?5stopped?5due?5to?5size?5m@ 000000018004f060     sfc_debug:sfcdebug.obj
 0002:000030d0       ??_C@_0GJ@OHCOIONE@Simulation?5stopped?5due?5to?5size?5o@ 000000018004f0d0     sfc_debug:sfcdebug.obj
 0002:00003140       ??_C@_0DF@BOMHHCNB@Subscripted?5assignment?5dimension@ 000000018004f140     sfc_debug:sfcdebug.obj
 0002:00003180       ??_C@_0NG@BOPFGKBO@Matrix?$CImatrix?$CJ?5subscript?5turned?5@ 000000018004f180     sfc_debug:sfcdebug.obj
 0002:00003260       ??_C@_0HE@FPEPCMDA@Matrix?$CImatrix?$CJ?5subscript?5turned?5@ 000000018004f260     sfc_debug:sfcdebug.obj
 0002:000032e0       ??_C@_0NG@MLJIHJIH@Vector?$CIvector?$CJ?5subscript?5turned?5@ 000000018004f2e0     sfc_debug:sfcdebug.obj
 0002:000033c0       ??_C@_0HE@BHPDCNDF@Vector?$CIvector?$CJ?5subscript?5turned?5@ 000000018004f3c0     sfc_debug:sfcdebug.obj
 0002:00003438       ??_C@_0BL@HKADOJK@Unknown?5runtime?5error?3?5?$CFs?4?$AA@ 000000018004f438     sfc_debug:sfcdebug.obj
 0002:00003458       ??_C@_0P@FIEIFKHH@dataName?$CB?$DNNULL?$AA@ 000000018004f458     sfc_debug:sfcdebug.obj
 0002:00003468       ??_C@_0BC@JKFOPCCM@non_integer_error?$AA@ 000000018004f468     sfc_debug:sfcdebug.obj
 0002:00003480       ??_C@_09MMCAMPEC@nan_error?$AA@ 000000018004f480     sfc_debug:sfcdebug.obj
 0002:00003490       ??_C@_0P@KGNBONIG@negative_error?$AA@ 000000018004f490     sfc_debug:sfcdebug.obj
 0002:000034a0       ??_C@_0DA@OEGHOJFO@Simulation?5stopped?5due?5to?5divide@ 000000018004f4a0     sfc_debug:sfcdebug.obj
 0002:000034d0       ??_C@_0P@DAGNNBKM@overflow_error?$AA@ 000000018004f4d0     sfc_debug:sfcdebug.obj
 0002:000034e0       ??_C@_0BF@IEPBJJM@divide_by_zero_error?$AA@ 000000018004f4e0     sfc_debug:sfcdebug.obj
 0002:000034f8       ??_C@_0BC@CNIFONOF@unsafe_enum_error?$AA@ 000000018004f4f8     sfc_debug:sfcdebug.obj
 0002:00003510       ??_C@_0BA@GLGJGIFO@data_loss_error?$AA@ 000000018004f510     sfc_debug:sfcdebug.obj
 0002:00003520       ??_C@_0BB@LFNCDKMF@data_range_error?$AA@ 000000018004f520     sfc_debug:sfcdebug.obj
 0002:00003540       ??_C@_0FA@OJFHKNAF@Simulation?5stopped?5because?5a?5dat@ 000000018004f540     sfc_debug:sfcdebug.obj
 0002:00003590       ??_C@_0BI@LLOJJCOG@read_before_write_error?$AA@ 000000018004f590     sfc_debug:sfcdebug.obj
 0002:000035a8       __real@4059000000000000    000000018004f5a8     sfc_debug:sfcdebug.obj
 0002:000035b0       ??_C@_0EL@LHLCBPON@objectType?$DN?$DNEVENT_OBJECT?5?$CG?$CG?5obje@ 000000018004f5b0     sfc_debug:sfcdebug.obj
 0002:00003600       ??_C@_0CK@BGKNIJPH@Simulation?5stopped?5due?5to?5infini@ 000000018004f600     sfc_debug:sfcdebug.obj
 0002:00003630       ??_C@_0BC@OGHOEIO@draw_message_post?$AA@ 000000018004f630     sfc_debug:sfcdebug.obj
 0002:00003650       ??_C@_0EC@EKMLJIIP@strlen?$CItargetName?$CJ?$DMsizeof?$CIdebugI@ 000000018004f650     sfc_debug:sfcdebug.obj
 0002:000036a0       ??_C@_0EE@LPPEFNLK@strlen?$CImachineName?$CJ?$DMsizeof?$CIdebug@ 000000018004f6a0     sfc_debug:sfcdebug.obj
 0002:000036e8       ??_C@_0BO@OEBODAF@charts?9?$DOlength?5?$DM?5charts?9?$DOsize?$AA@ 000000018004f6e8     sfc_debug:sfcdebug.obj
 0002:00003708       ??_C@_0P@NDNBPAGO@charts?9?$DOsize?$DO0?$AA@ 000000018004f708     sfc_debug:sfcdebug.obj
 0002:00003718       ??_C@_09DACGJFPO@terminate?$AA@ 000000018004f718     sfc_debug:sfcdebug.obj
 0002:00003728       ??_C@_0BH@BOIPOAMD@currentoptionalinteger?$AA@ 000000018004f728     sfc_debug:sfc_api.obj
 0002:00003740       ??_C@_0BI@KDFLIHKN@currentstatementcontext?$AA@ 000000018004f740     sfc_debug:sfc_api.obj
 0002:00003758       ??_C@_0BF@CJJCNHOP@currentstatementinfo?$AA@ 000000018004f758     sfc_debug:sfc_api.obj
 0002:00003770       ??_C@_0BA@EEHAMBBL@currentcoverage?$AA@ 000000018004f770     sfc_debug:sfc_api.obj
 0002:00003780       ??_C@_0BD@CPIGBEHM@currentmachinename?$AA@ 000000018004f780     sfc_debug:sfc_api.obj
 0002:00003798       ??_C@_0BF@MPNFKHIK@currentmachinenumber?$AA@ 000000018004f798     sfc_debug:sfc_api.obj
 0002:000037b0       ??_C@_0BB@EAGFPGEG@currentmachineid?$AA@ 000000018004f7b0     sfc_debug:sfc_api.obj
 0002:000037c8       ??_C@_0P@LDEJFJKJ@simulationtime?$AA@ 000000018004f7c8     sfc_debug:sfc_api.obj
 0002:000037d8       ??_C@_0P@CKMPNBM@currenttagtype?$AA@ 000000018004f7d8     sfc_debug:sfc_api.obj
 0002:000037e8       ??_C@_0BH@EMAALFDO@currentactiveeventtype?$AA@ 000000018004f7e8     sfc_debug:sfc_api.obj
 0002:00003800       ??_C@_0BF@BIDFPCPF@currentactiveeventid?$AA@ 000000018004f800     sfc_debug:sfc_api.obj
 0002:00003818       ??_C@_0BA@LAPNNELA@currentobjectid?$AA@ 000000018004f818     sfc_debug:sfc_api.obj
 0002:00003828       ??_C@_0BB@LLJHHKEI@currenteventtype?$AA@ 000000018004f828     sfc_debug:sfc_api.obj
 0002:00003840       ??_C@_0BC@BDADCDEL@currentobjecttype?$AA@ 000000018004f840     sfc_debug:sfc_api.obj
 0002:00003858       ??_C@_0BH@HDHFFKCN@currentisminortimestep?$AA@ 000000018004f858     sfc_debug:sfc_api.obj
 0002:00003870       ??_C@_0BG@PKFJEKLL@currentinstancehandle?$AA@ 000000018004f870     sfc_debug:sfc_api.obj
 0002:00003888       ??_C@_0BG@GJFHKFBJ@currentinstancenumber?$AA@ 000000018004f888     sfc_debug:sfc_api.obj
 0002:000038a0       ??_C@_0BD@DKAMMHEE@currentchartnumber?$AA@ 000000018004f8a0     sfc_debug:sfc_api.obj
 0002:000038b8       ??_C@_0P@EANFOHCD@currentchartid?$AA@ 000000018004f8b8     sfc_debug:sfc_api.obj
 0002:000038c8       ??_C@_0CC@JILMFDHL@extract_message_post_receive_inf@ 000000018004f8c8     sfc_debug:sfc_api.obj
 0002:000038ec       ??_C@_06IMFOKBKF@assign?$AA@ 000000018004f8ec     sfc_debug:sfc_api.obj
 0002:000038f8       ??_C@_0BC@CMFMGKCG@set_script_cv_ids?$AA@ 000000018004f8f8     sfc_debug:sfc_api.obj
 0002:00003910       ??_C@_0BE@ONNFKBAC@set_instance_cv_ids?$AA@ 000000018004f910     sfc_debug:sfc_api.obj
 0002:00003928       ??_C@_0BE@CDIKCKCD@get_instance_handle?$AA@ 000000018004f928     sfc_debug:sfc_api.obj
 0002:00003940       ??_C@_0BE@GPEMFILK@break_between_times?$AA@ 000000018004f940     sfc_debug:sfc_api.obj
 0002:00003958       ??_C@_0O@KGONFDDG@active_states?$AA@ 000000018004f958     sfc_debug:sfc_api.obj
 0002:00003968       ??_C@_0BC@LHALNGBC@state_consistency?$AA@ 000000018004f968     sfc_debug:sfc_api.obj
 0002:00003980       ??_C@_0BE@JNDELHDH@transition_conflict?$AA@ 000000018004f980     sfc_debug:sfc_api.obj
 0002:00003998       ??_C@_0L@ECJAFPAF@data_range?$AA@ 000000018004f998     sfc_debug:sfc_api.obj
 0002:000039a8       ??_C@_0O@NAKDKJME@select_charts?$AA@ 000000018004f9a8     sfc_debug:sfc_api.obj
 0002:000039b8       ??_C@_0N@KLDBDGD@select_chart?$AA@ 000000018004f9b8     sfc_debug:sfc_api.obj
 0002:000039c8       ??_C@_0O@NJPMKBAC@set_animation?$AA@ 000000018004f9c8     sfc_debug:sfc_api.obj
 0002:000039d8       ??_C@_09FLOFKLFE@set_watch?$AA@ 000000018004f9d8     sfc_debug:sfc_api.obj
 0002:000039e8       ??_C@_0O@ECMAEPOC@get_script_id?$AA@ 000000018004f9e8     sfc_debug:sfc_api.obj
 0002:000039f8       ??_C@_0BJ@KFGPCNG@query_script_breakpoints?$AA@ 000000018004f9f8     sfc_debug:sfc_api.obj
 0002:00003a18       ??_C@_0BJ@CAAHLJNF@clear_script_breakpoints?$AA@ 000000018004fa18     sfc_debug:sfc_api.obj
 0002:00003a38       ??_C@_0BH@BAILBHDP@add_script_breakpoints?$AA@ 000000018004fa38     sfc_debug:sfc_api.obj
 0002:00003a50       ??_C@_0BH@KAKDDELG@set_script_breakpoints?$AA@ 000000018004fa50     sfc_debug:sfc_api.obj
 0002:00003a68       ??_C@_0BE@GAGDJPKA@set_eml_breakpoints?$AA@ 000000018004fa68     sfc_debug:sfc_api.obj
 0002:00003a80       ??_C@_0BA@NHOBHLLJ@set_breakpoints?$AA@ 000000018004fa80     sfc_debug:sfc_api.obj
 0002:00003a90       ??_C@_0BF@GOGOODJG@break_on_state_entry?$AA@ 000000018004fa90     sfc_debug:sfc_api.obj
 0002:00003aa8       ??_C@_0BJ@FPOJDFBP@break_on_event_broadcast?$AA@ 000000018004faa8     sfc_debug:sfc_api.obj
 0002:00003ac8       ??_C@_0BF@FJBBAFJ@break_on_chart_entry?$AA@ 000000018004fac8     sfc_debug:sfc_api.obj
 0002:00003ae0       ??_C@_0N@MHHEHLAI@browse_trace?$AA@ 000000018004fae0     sfc_debug:sfc_api.obj
 0002:00003af0       ??_C@_0BB@JEAJMJMI@consistency_info?$AA@ 000000018004faf0     sfc_debug:sfc_api.obj
 0002:00003b04       ??_C@_04MLCEENPJ@whos?$AA@ 000000018004fb04     sfc_debug:sfc_api.obj
 0002:00003b10       ??_C@_0L@LNIDAIN@watch_data?$AA@ 000000018004fb10     sfc_debug:sfc_api.obj
 0002:00003b20       ??_C@_0M@JEJMEFEG@browse_data?$AA@ 000000018004fb20     sfc_debug:sfc_api.obj
 0002:00003b2c       ??_C@_03HNAFFKGA@get?$AA@  000000018004fb2c     sfc_debug:sfc_api.obj
 0002:00003b30       ??_C@_05LBOHBHFK@close?$AA@ 000000018004fb30     sfc_debug:sfc_api.obj
 0002:00003b38       ??_C@_0BM@ICDFOOIE@set_disable_all_breakpoints?$AA@ 000000018004fb38     sfc_debug:sfc_api.obj
 0002:00003b58       ??_C@_0BP@IBIALPGH@disable_all_breakpoints_and_go?$AA@ 000000018004fb58     sfc_debug:sfc_api.obj
 0002:00003b78       ??_C@_0BJ@BOMFHJBD@is_array_bounds_detected?$AA@ 000000018004fb78     sfc_debug:sfc_api.obj
 0002:00003b98       ??_C@_0BC@LKOOEAAH@is_cycle_detected?$AA@ 000000018004fb98     sfc_debug:sfc_api.obj
 0002:00003bb0       ??_C@_0P@NIBPNIDJ@stop_debugging?$AA@ 000000018004fbb0     sfc_debug:sfc_api.obj
 0002:00003bc0       ??_C@_05ELPHFHOI@break?$AA@ 000000018004fbc0     sfc_debug:sfc_api.obj
 0002:00003bc8       ??_C@_06PLELHCEK@resume?$AA@ 000000018004fbc8     sfc_debug:sfc_api.obj
 0002:00003bd0       ??_C@_08OKABEMKO@step_out?$AA@ 000000018004fbd0     sfc_debug:sfc_api.obj
 0002:00003be0       ??_C@_09CDNMPCHO@step_over?$AA@ 000000018004fbe0     sfc_debug:sfc_api.obj
 0002:00003bec       ??_C@_02KPEDIMCA@go?$AA@   000000018004fbec     sfc_debug:sfc_api.obj
 0002:00003bf0       ??_C@_0P@MMCMIGPN@debugger_alive?$AA@ 000000018004fbf0     sfc_debug:sfc_api.obj
 0002:00003c00       ??_C@_0N@GHFBLJDM@machine_load?$AA@ 000000018004fc00     sfc_debug:sfc_api.obj
 0002:00003c10       ??_C@_0O@GIBFCMLF@chart_visible?$AA@ 000000018004fc10     sfc_debug:sfc_api.obj
 0002:00004030       ??_C@_05JEMLEKKA@found?$AA@ 0000000180050030     sfc_debug:sfc_api.obj
 0002:00004038       ??_C@_09KFNMLIAN@sfc_api?4c?$AA@ 0000000180050038     sfc_debug:sfc_api.obj
 0002:00004048       ??_C@_0N@PFBMDOLG@sf_debug_api?$AA@ 0000000180050048     sfc_debug:sfc_api.obj
 0002:00004058       ??_C@_07KEAHHHLK@nrhs?$DN?$DN3?$AA@ 0000000180050058     sfc_debug:sfc_api.obj
 0002:00004060       ??_C@_0BC@HOOMKBNL@mxIsChar?$CIprhs?$FL0?$FN?$CJ?$AA@ 0000000180050060     sfc_debug:sfc_api.obj
 0002:00004078       ??_C@_0BF@NGLAGMHA@mxIsNumeric?$CIprhs?$FL0?$FN?$CJ?$AA@ 0000000180050078     sfc_debug:sfc_api.obj
 0002:00004090       ??_C@_07IEIELKNG@nrhs?$DO?$DN1?$AA@ 0000000180050090     sfc_debug:sfc_api.obj
 0002:00004098       ??_C@_07LNBMEGPL@nrhs?$DN?$DN2?$AA@ 0000000180050098     sfc_debug:sfc_api.obj
 0002:000040a0       ??_C@_0BD@DPNMCCEH@nrhs?$DN?$DN1?5?$HM?$HM?5nrhs?$DN?$DN3?$AA@ 00000001800500a0     sfc_debug:sfc_api.obj
 0002:000040b8       ??_C@_09FKOBHCEN@nrhs?5?$DN?$DN?52?$AA@ 00000001800500b8     sfc_debug:sfc_api.obj
 0002:000040c8       ??_C@_09EMKMAIDO@nrhs?5?$DM?$DN?51?$AA@ 00000001800500c8     sfc_debug:sfc_api.obj
 0002:000040d8       ??_C@_07OLEGOBHN@nrhs?$DN?$DN4?$AA@ 00000001800500d8     sfc_debug:sfc_api.obj
 0002:000040e0       ??_C@_07PCFNNADM@nrhs?$DN?$DN5?$AA@ 00000001800500e0     sfc_debug:sfc_api.obj
 0002:000040e8       ??_C@_07JGDBBFDI@nrhs?$DN?$DN1?$AA@ 00000001800500e8     sfc_debug:sfc_api.obj
 0002:000040f0       ??_C@_07KBNAPCKL@nlhs?$DN?$DN1?$AA@ 00000001800500f0     sfc_debug:sfc_api.obj
 0002:000040f8       ??_C@_08PAMHJLPB@statusOk?$AA@ 00000001800500f8     sfc_debug:sfc_api.obj
 0002:00004108       ??_C@_07NJHAIDPP@nrhs?$DN?$DN6?$AA@ 0000000180050108     sfc_debug:sfc_api.obj
 0002:00004110       ??_C@_0L@EMNHGDGL@nlhs?$DN?$DNnrhs?$AA@ 0000000180050110     sfc_debug:sfc_api.obj
 0002:00004120       ??_C@_0P@BLJCAHMG@select_objects?$AA@ 0000000180050120     sfc_debug:sfdb_animation.obj
 0002:00004130       ??_C@_06CFKBOPCI@states?$AA@ 0000000180050130     sfc_debug:sfdb_animation.obj
 0002:00004138       ??_C@_0P@KHIIFDEG@instanceHandle?$AA@ 0000000180050138     sfc_debug:sfdb_animation.obj
 0002:00004148       ??_C@_0P@DEIGLMOE@instanceNumber?$AA@ 0000000180050148     sfc_debug:sfdb_animation.obj
 0002:00004158       ??_C@_0N@HACOJJON@instanceName?$AA@ 0000000180050158     sfc_debug:sfdb_animation.obj
 0002:00004168       ??_C@_0M@BFNIOHPP@chartNumber?$AA@ 0000000180050168     sfc_debug:sfdb_animation.obj
 0002:00004178       ??_C@_09KMHJEGJ@chartName?$AA@ 0000000180050178     sfc_debug:sfdb_animation.obj
 0002:00004184       ??_C@_06OOECHJN@charts?$AA@ 0000000180050184     sfc_debug:sfdb_animation.obj
 0002:00004190       ??_C@_0O@LOMGGENK@machineNumber?$AA@ 0000000180050190     sfc_debug:sfdb_animation.obj
 0002:000041a0       ??_C@_09OOJCKABH@machineId?$AA@ 00000001800501a0     sfc_debug:sfdb_animation.obj
 0002:000041b0       ??_C@_0M@OCOCCFP@machineName?$AA@ 00000001800501b0     sfc_debug:sfdb_animation.obj
 0002:000041c0       ??_C@_0CN@CCJEMGOM@?$CIinstance?9?$DOsm?4statePack?$CJ?4length?$DO@ 00000001800501c0     sfc_debug:sfdb_animation.obj
 0002:000041f0       ??_C@_0DC@DKAJIDPA@?$CIinstance?9?$DOsm?4transitionPack?$CJ?4le@ 00000001800501f0     sfc_debug:sfdb_animation.obj
 0002:00004228       ??_C@_0BB@EGGLBLCL@sfdb_animation?4c?$AA@ 0000000180050228     sfc_debug:sfdb_animation.obj
 0002:00004240       ??_C@_0BB@GDGPIGLB@cv_model_enabled?$AA@ 0000000180050240     sfc_debug:cv_sfinterface.obj
 0002:00004258       ??_C@_09DDDNMFIJ@get_param?$AA@ 0000000180050258     sfc_debug:cv_sfinterface.obj
 0002:00004268       ??_C@_0L@BODNDPN@CoverageId?$AA@ 0000000180050268     sfc_debug:cv_sfinterface.obj
 0002:00004278       __real@4008000000000000    0000000180050278     sfc_debug:cv_sfinterface.obj
 0002:00004280       ??_C@_05IEGMLJMJ@exist?$AA@ 0000000180050280     sfc_debug:cv_sfinterface.obj
 0002:00004288       ??_C@_02DDEKINOE@cv?$AA@   0000000180050288     sfc_debug:cv_sfinterface.obj
 0002:00004290       __real@4082c00000000000    0000000180050290     sfc_debug:cv_sfinterface.obj
 0002:00004298       ??_C@_0O@HGNEKHDK@MatlabVersion?$AA@ 0000000180050298     sfc_debug:cv_sfinterface.obj
 0002:000042a8       ??_C@_0M@IIAIMKFO@status?5?$DN?$DN?50?$AA@ 00000001800502a8     sfc_debug:cv_sfinterface.obj
 0002:000042b8       ??_C@_0BB@ENEMAMMG@cv_sfinterface?4c?$AA@ 00000001800502b8     sfc_debug:cv_sfinterface.obj
 0002:000042d0       ??_C@_0CC@JMPFGLON@mxGetNumberOfElements?$CIplhs?$FL3?$FN?$CJ?$DN?$DN@ 00000001800502d0     sfc_debug:cv_sfinterface.obj
 0002:000042f8       ??_C@_0P@MCDOIOOF@plhs?$FL3?$FN?5?$CB?$DNNULL?$AA@ 00000001800502f8     sfc_debug:cv_sfinterface.obj
 0002:00004308       ??_C@_0P@HAMLCBNF@len?$DM?$DNdataCount?$AA@ 0000000180050308     sfc_debug:cv_sfinterface.obj
 0002:00004318       ??_C@_0BA@FJOAHKLL@len?$DN?$DNtransCount?$AA@ 0000000180050318     sfc_debug:cv_sfinterface.obj
 0002:00004328       ??_C@_0BA@JELAJLGI@len?$DN?$DNstateCount?$AA@ 0000000180050328     sfc_debug:cv_sfinterface.obj
 0002:00004338       ??_C@_0BC@NEFBEIHN@InitChartInstance?$AA@ 0000000180050338     sfc_debug:cv_sfinterface.obj
 0002:0000434c       ??_C@_04MMALOABH@cvsf?$AA@ 000000018005034c     sfc_debug:cv_sfinterface.obj
 0002:00004358       ??_C@_0L@GIEKKEHF@InitScript?$AA@ 0000000180050358     sfc_debug:cv_sfinterface.obj
 0002:00004368       ??_C@_08DNDOONPK@sigrange?$AA@ 0000000180050368     sfc_debug:cv_sfinterface.obj
 0002:00004378       ??_C@_0O@KGBGEHIN@MetricEnabled?$AA@ 0000000180050378     sfc_debug:cv_sfinterface.obj
 0002:00004388       ??_C@_0BC@NKPEPJDJ@chart?9?$DOchartId?$CB?$DN0?$AA@ 0000000180050388     sfc_debug:cv_sfinterface.obj
 0002:0000439c       ??_C@_02GMHACPFF@?$CFu?$AA@ 000000018005039c     sfc_debug:sfdb_data_browse.obj
 0002:000043a0       ??_C@_02NJPGOMH@?$CFf?$AA@ 00000001800503a0     sfc_debug:sfdb_data_browse.obj
 0002:000043a8       ??_C@_0BD@PCGIEHBF@sfdb_data_browse?4c?$AA@ 00000001800503a8     sfc_debug:sfdb_data_browse.obj
 0002:000043c0       __real@c2a2309ce53fffcd    00000001800503c0     sfc_debug:sfdb_data_browse.obj
 0002:000043c8       ??_C@_0CK@JKBFHDPL@result?5?$DN?5mxCreateDoubleMatrix?$CI1?0@ 00000001800503c8     sfc_debug:sfdb_data_browse.obj
 0002:000043f8       ??_C@_0DK@FJDNFCNK@result?5?$DN?5mxCreateDoubleMatrix?$CI1?0@ 00000001800503f8     sfc_debug:sfdb_data_browse.obj
 0002:00004438       ??_C@_0DL@OAKPHGJG@result?5?$DN?5mxCreateDoubleMatrix?$CI1?0@ 0000000180050438     sfc_debug:sfdb_data_browse.obj
 0002:00004478       ??_C@_0N@MNGHGLAH@isFixedPoint?$AA@ 0000000180050478     sfc_debug:sfdb_data_browse.obj
 0002:00004488       ??_C@_06DLEPGFEF@format?$AA@ 0000000180050488     sfc_debug:sfdb_data_browse.obj
 0002:00004490       ??_C@_05MFEJDJP@value?$AA@ 0000000180050490     sfc_debug:sfdb_data_browse.obj
 0002:00004498       ??_C@_05DCCHDMEJ@scope?$AA@ 0000000180050498     sfc_debug:sfdb_data_browse.obj
 0002:000044a0       ??_C@_02EGCJHIOB@id?$AA@   00000001800504a0     sfc_debug:sfdb_data_browse.obj
 0002:000044a4       ??_C@_04PJOLNDGD@data?$AA@ 00000001800504a4     sfc_debug:sfdb_data_browse.obj
 0002:000044ac       ??_C@_06LIBBAANI@len?$DN?$DN1?$AA@ 00000001800504ac     sfc_debug:sfdb_handle_management.obj
 0002:000044b8       ??_C@_0BJ@IEEBKHME@sfdb_handle_management?4c?$AA@ 00000001800504b8     sfc_debug:sfdb_handle_management.obj
 0002:000044d4       ??_C@_06NCGDPKCC@handle?$AA@ 00000001800504d4     sfc_debug:sfdb_handle_management.obj
 0002:000044e0       ??_C@_0BP@NAIIDBEE@parentObjectType?$DN?$DNCHART_OBJECT?$AA@ 00000001800504e0     sfc_debug:sfdb_handle_management.obj
 0002:00004500       ??_C@_0BD@JOOOIBOE@get_machine_option?$AA@ 0000000180050500     sfc_debug:sfdb_handle_management.obj
 0002:00004518       ??_C@_0P@KGLBOIAN@get_machine_id?$AA@ 0000000180050518     sfc_debug:sfdb_handle_management.obj
 0002:00004528       ??_C@_0N@OBHOGINE@get_chart_id?$AA@ 0000000180050528     sfc_debug:sfdb_handle_management.obj
 0002:00004538       ??_C@_0BD@DICPGEAM@register_sfunction?$AA@ 0000000180050538     sfc_debug:sfdb_handle_management.obj
 0002:00004550       ??_C@_0BF@FENDCECP@get_chart_visibility?$AA@ 0000000180050550     sfc_debug:sfdb_handle_management.obj
 0002:00004568       ??_C@_0BM@FDGIEMLG@objectProperties?9?$DOlength?$DN?$DN0?$AA@ 0000000180050568     sfc_debug:sfdb_handle_management.obj
 0002:00004588       ??_C@_0CE@KBPIEDGG@?$CI?$CI?$CKobjectProperties?$CJ?$CJ?4length?$DOnum@ 0000000180050588     sfc_debug:sfdb_handle_management.obj
 0002:000045b0       ??_C@_0CA@HFGDFECP@len?5?$DN?$DN?5objectProperties?9?$DOlength?$AA@ 00000001800505b0     sfc_debug:sfdb_handle_management.obj
 0002:000045d0       ??_C@_0P@BHPLCHGJ@get_object_ids?$AA@ 00000001800505d0     sfc_debug:sfdb_handle_management.obj
 0002:000045e0       ??_C@_0BK@IFFOLHLE@objectProperties?9?$DOsize?$DN?$DN0?$AA@ 00000001800505e0     sfc_debug:sfdb_handle_management.obj
 0002:00004600       ??_C@_0BO@GFLPGHHM@len?5?$DO?$DN?5objectProperties?9?$DOsize?$AA@ 0000000180050600     sfc_debug:sfdb_handle_management.obj
 0002:00004620       ??_C@_05GFHEIIDD@event?$AA@ 0000000180050620     sfc_debug:sfdb_handle_management.obj
 0002:00004628       ??_C@_0M@BFOKCNLA@debug?4watch?$AA@ 0000000180050628     sfc_debug:sfdb_handle_management.obj
 0002:00004638       ??_C@_0CE@OILCPIFA@machine?4debug?4disableAllBreakpoi@ 0000000180050638     sfc_debug:sfdb_handle_management.obj
 0002:00004660       ??_C@_0DA@JMDEGBBH@machine?4debug?4runTimeCheck?4state@ 0000000180050660     sfc_debug:sfdb_handle_management.obj
 0002:00004690       ??_C@_0CP@IPHIMGFA@machine?4debug?4runTimeCheck?4trans@ 0000000180050690     sfc_debug:sfdb_handle_management.obj
 0002:000046c0       ??_C@_0CL@LENOAAKD@machine?4debug?4runTimeCheck?4dataR@ 00000001800506c0     sfc_debug:sfdb_handle_management.obj
 0002:000046f0       ??_C@_0CK@MBMAMLGE@machine?4debug?4runTimeCheck?4cycle@ 00000001800506f0     sfc_debug:sfdb_handle_management.obj
 0002:00004720       ??_C@_0CA@EGLALCO@machine?4debug?4animation?4enabled?$AA@ 0000000180050720     sfc_debug:sfdb_handle_management.obj
 0002:00004740       ??_C@_0L@KGLELNDP@transition?$AA@ 0000000180050740     sfc_debug:sfdb_handle_management.obj
 0002:0000474c       ??_C@_06JKPEPHBG@dst?4id?$AA@ 000000018005074c     sfc_debug:sfdb_handle_management.obj
 0002:00004754       ??_C@_05HDBKIDE@state?$AA@ 0000000180050754     sfc_debug:sfdb_handle_management.obj
 0002:00004760       ??_C@_0EG@MFIKDIJB@strlen?$CImachineName?$CJ?5?$DM?5sizeof?$CIdeb@ 0000000180050760     sfc_debug:sfdb_handle_management.obj
 0002:000047a8       ??_C@_0BM@DEONCIBN@stackPtr?5?$DN?$DN?5symScope?9?$DOstack?$AA@ 00000001800507a8     sfc_debug:sfdb_symbol_scope.obj
 0002:000047c8       ??_C@_0BE@PIKAOBFK@sfdb_symbol_scope?4c?$AA@ 00000001800507c8     sfc_debug:sfdb_symbol_scope.obj
 0002:000047e0       ??_C@_0BP@MJGDIBPE@symScope?9?$DOcurrentScope?5?$CB?$DN?5NULL?$AA@ 00000001800507e0     sfc_debug:sfdb_symbol_scope.obj
 0002:00004800       ??_C@_0BP@OCHHKFJA@symScope?9?$DOcurrentScope?5?$DN?$DN?5NULL?$AA@ 0000000180050800     sfc_debug:sfdb_symbol_scope.obj
 0002:00004820       ??_C@_0BM@KCIKANPA@symScope?9?$DOstack?5?$DN?$DN?5stackPtr?$AA@ 0000000180050820     sfc_debug:sfdb_symbol_scope.obj
 0002:00004840       ??_C@_0DK@NCABFGD@symScope?9?$DOcurrentScope?5?$CB?$DN?5NULL?5?$CG@ 0000000180050840     sfc_debug:sfdb_symbol_scope.obj
 0002:00004880       ??_C@_0DL@LDAGNOEE@currScope?9?$DOsymbolTable?4count?5?$DM?5c@ 0000000180050880     sfc_debug:sfdb_symbol_scope.obj
 0002:000048c0       ??_C@_0BK@PHCKFGOO@numDims?5?$DM?$DN?5MAX_DIMENSIONS?$AA@ 00000001800508c0     sfc_debug:sfdb_symbol_scope.obj
 0002:000048e0       ??_C@_0EE@CLCFNFKP@Warning?3?5Can?8t?5display?5value?4?5Nu@ 00000001800508e0     sfc_debug:sfdb_symbol_scope.obj
 0002:00004928       ??_C@_0BB@NPDHFBEP@valuePtr?5?$CB?$DN?5NULL?$AA@ 0000000180050928     sfc_debug:sfdb_symbol_scope.obj
 0002:00004940       ??_C@_0O@CHHKIHJE@chart?5?$CB?$DN?5NULL?$AA@ 0000000180050940     sfc_debug:sfdb_symbol_scope.obj
 0002:00004950       ??_C@_0CB@PFGINMAC@dataInfo?5?$CG?$CG?5data?5?$CG?$CG?5st?5?$CG?$CG?5i?5?$DO?$DN?50@ 0000000180050950     sfc_debug:sfdb_symbol_scope.obj
 0002:00004980       ??_C@_0PC@ENOLANEC@Cannot?5change?5value?5of?5?8?$CFs?8?5at?5d@ 0000000180050980     sfc_debug:sfdb_symbol_scope.obj
 0002:00004a74       ??_C@_02PINLEBJB@fi?$AA@   0000000180050a74     sfc_debug:sfdb_symbol_scope.obj
 0002:00004a78       ??_C@_06FDANFAAP@sim2fi?$AA@ 0000000180050a78     sfc_debug:sfdb_symbol_scope.obj
 0002:00004a80       ??_C@_0N@PGGMJAFA@Out?5of?5Scope?$AA@ 0000000180050a80     sfc_debug:sfdb_symbol_scope.obj
 0002:00004a90       ??_C@_0BF@KFJKGDMO@Unrecognized?5symbol?4?$AA@ 0000000180050a90     sfc_debug:sfdb_symbol_scope.obj
 0002:00004aa8       ??_C@_0L@INJGJGAM@?5?$CIcomplex?$CJ?$AA@ 0000000180050aa8     sfc_debug:sfdb_symbol_scope.obj
 0002:00004ab8       ??_C@_0O@MHGLJPE@fixpt?5?$CI?$CFs?5?$CFs?$CJ?$AA@ 0000000180050ab8     sfc_debug:sfdb_symbol_scope.obj
 0002:00004ac8       ??_C@_08FFKICJMO@?$CFs?$CL?$CF?416g?$AA@ 0000000180050ac8     sfc_debug:sfdb_symbol_scope.obj
 0002:00004ad4       ??_C@_02EPPPECEI@SI?$AA@   0000000180050ad4     sfc_debug:sfdb_symbol_scope.obj
 0002:00004ad8       ??_C@_09LKFGHFHF@?$CFs?$CI2?$FO?$CFd?$CJ?$CK?$AA@ 0000000180050ad8     sfc_debug:sfdb_symbol_scope.obj
 0002:00004ae4       ??_C@_06KJECHFDK@?$CF?416g?$CK?$AA@ 0000000180050ae4     sfc_debug:sfdb_symbol_scope.obj
 0002:00004aec       ??_C@_02IJPJFKDF@ml?$AA@   0000000180050aec     sfc_debug:sfdb_symbol_scope.obj
 0002:00004af0       ??_C@_0O@NJOJHIHO@logical?5array?$AA@ 0000000180050af0     sfc_debug:sfdb_symbol_scope.obj
 0002:00004b00       ??_C@_0L@MDMKKENH@char?5array?$AA@ 0000000180050b00     sfc_debug:sfdb_symbol_scope.obj
 0002:00004b10       ??_C@_0N@DGCGENML@uint32?5array?$AA@ 0000000180050b10     sfc_debug:sfdb_symbol_scope.obj
 0002:00004b20       ??_C@_0M@OFFMACLB@int32?5array?$AA@ 0000000180050b20     sfc_debug:sfdb_symbol_scope.obj
 0002:00004b30       ??_C@_0N@JMJKGLLH@uint16?5array?$AA@ 0000000180050b30     sfc_debug:sfdb_symbol_scope.obj
 0002:00004b40       ??_C@_0M@EPOACEMN@int16?5array?$AA@ 0000000180050b40     sfc_debug:sfdb_symbol_scope.obj
 0002:00004b50       ??_C@_0M@NOMKNEGI@uint8?5array?$AA@ 0000000180050b50     sfc_debug:sfdb_symbol_scope.obj
 0002:00004b60       ??_C@_0L@HCHBFFAP@int8?5array?$AA@ 0000000180050b60     sfc_debug:sfdb_symbol_scope.obj
 0002:00004b70       ??_C@_0N@KIFCNMIF@single?5array?$AA@ 0000000180050b70     sfc_debug:sfdb_symbol_scope.obj
 0002:00004b80       ??_C@_0N@OFOFFBCM@double?5array?$AA@ 0000000180050b80     sfc_debug:sfdb_symbol_scope.obj
 0002:00004b90       ??_C@_04BIAHPGJI@?$CFdx1?$AA@ 0000000180050b90     sfc_debug:sfdb_symbol_scope.obj
 0002:00004b98       ??_C@_04CADIJHHA@?$CFd?9D?$AA@ 0000000180050b98     sfc_debug:sfdb_symbol_scope.obj
 0002:00004ba0       ??_C@_05JIPKJPMI@?$CFs?$CFdx?$AA@ 0000000180050ba0     sfc_debug:sfdb_symbol_scope.obj
 0002:00004ba8       ??_C@_0BH@GLACFBLP@?5?$CIvariable?5sized?3?5MAX?5?$AA@ 0000000180050ba8     sfc_debug:sfdb_symbol_scope.obj
 0002:00004bc0       ??_C@_07CIFAGBMG@unknown?$AA@ 0000000180050bc0     sfc_debug:sfdb_symbol_scope.obj
 0002:00004bc8       ??_C@_05ENKANFLO@class?$AA@ 0000000180050bc8     sfc_debug:sfdb_symbol_scope.obj
 0002:00004bd0       ??_C@_05FBJAGGIG@bytes?$AA@ 0000000180050bd0     sfc_debug:sfdb_symbol_scope.obj
 0002:00004bd8       ??_C@_04MEMAJGDJ@name?$AA@ 0000000180050bd8     sfc_debug:sfdb_symbol_scope.obj
 0002:00004be0       ??_C@_0CF@NELOECCL@coverageVector?9?$DOlength?$DOcoverageI@ 0000000180050be0     sfc_debug:sfdb_coverage.obj
 0002:00004c08       ??_C@_0BA@CBMBNBFB@sfdb_coverage?4c?$AA@ 0000000180050c08     sfc_debug:sfdb_coverage.obj
 0002:00004c18       ??_C@_0DN@FAEHHEAM@?$CIscript?9?$DObm?4breakpoints?$CJ?4length?$DO@ 0000000180050c18     sfc_debug:sfdb_breakpoints.obj
 0002:00004c58       ??_C@_0BD@BABBLJFB@sfdb_breakpoints?4c?$AA@ 0000000180050c58     sfc_debug:sfdb_breakpoints.obj
 0002:00004c70       ??_C@_0P@IGHKOFID@get_script_bps?$AA@ 0000000180050c70     sfc_debug:sfdb_breakpoints.obj
 0002:00004c80       ??_C@_0BA@ICOJJJDD@get_all_scripts?$AA@ 0000000180050c80     sfc_debug:sfdb_breakpoints.obj
 0002:00004c90       ??_C@_0EI@EDDFBGGP@?$CIunsigned?5int?$CJ?$CImxGetM?$CIplhs?$FL0?$FN?$CJ?5?$CK@ 0000000180050c90     sfc_debug:sfdb_breakpoints.obj
 0002:00004cd8       ??_C@_0BE@PNADEEOB@get_eml_line_counts?$AA@ 0000000180050cd8     sfc_debug:sfdb_breakpoints.obj
 0002:00004cf0       ??_C@_0CC@JPCLBDPC@mxGetNumberOfElements?$CIplhs?$FL0?$FN?$CJ?$DN?$DN@ 0000000180050cf0     sfc_debug:sfdb_breakpoints.obj
 0002:00004d18       ??_C@_0P@EHJHKHLL@get_global_bps?$AA@ 0000000180050d18     sfc_debug:sfdb_breakpoints.obj
 0002:00004d28       ??_C@_0CE@NADCJCF@?$CIchart?9?$DObm?4chart?$FLtagType?$FN?$CJ?4lengt@ 0000000180050d28     sfc_debug:sfdb_breakpoints.obj
 0002:00004d50       ??_C@_0CP@JOFCMAIP@?$CIchart?9?$DObm?4state?$FLtagType?$FN?$CJ?4lengt@ 0000000180050d50     sfc_debug:sfdb_breakpoints.obj
 0002:00004d80       ??_C@_0DE@GNPGALGC@?$CIchart?9?$DObm?4transition?$FLtagType?$FN?$CJ?4@ 0000000180050d80     sfc_debug:sfdb_breakpoints.obj
 0002:00004db8       ??_C@_0DB@PCFIPMMH@?$CImachine?9?$DObm?4event?$FLtagType?$FN?$CJ?4len@ 0000000180050db8     sfc_debug:sfdb_breakpoints.obj
 0002:00004df0       ??_C@_0CP@FENPPAOI@?$CIchart?9?$DObm?4event?$FLtagType?$FN?$CJ?4lengt@ 0000000180050df0     sfc_debug:sfdb_breakpoints.obj
 0002:00004e20       ??_C@_0CH@EKAIFOIL@numCols?5?$DN?$DN?5TOTAL_EVENT_BREAKPOIN@ 0000000180050e20     sfc_debug:sfdb_breakpoints.obj
 0002:00004e48       ??_C@_0CA@BECONEOF@numRows?5?$DN?$DN?5machine?9?$DOevent?4count?$AA@ 0000000180050e48     sfc_debug:sfdb_breakpoints.obj
 0002:00004e68       ??_C@_07HCEBIAFG@get_bps?$AA@ 0000000180050e68     sfc_debug:sfdb_breakpoints.obj
 0002:00004e70       ??_C@_0BI@LFGGAIIJ@?$CIbps?$CJ?4length?$DObreakPoint?$AA@ 0000000180050e70     sfc_debug:sfdb_breakpoints.obj
 0002:00004e88       ??_C@_0N@CNOINHPD@numCols?5?$DN?$DN?51?$AA@ 0000000180050e88     sfc_debug:sfdb_breakpoints.obj
 0002:00004e98       ??_C@_0M@NNPJEEAE@get_eml_bps?$AA@ 0000000180050e98     sfc_debug:sfdb_breakpoints.obj
 0002:00004ea8       ??_C@_0BO@CDPAPHEM@numRows?5?$DN?$DN?5chart?9?$DOevent?4count?$AA@ 0000000180050ea8     sfc_debug:sfdb_breakpoints.obj
 0002:00004ec8       ??_C@_0CM@FFJFHNEO@numCols?5?$DN?$DN?5TOTAL_TRANSITION_BREA@ 0000000180050ec8     sfc_debug:sfdb_breakpoints.obj
 0002:00004ef8       ??_C@_0CD@IOIMPEBN@numRows?5?$DN?$DN?5chart?9?$DOtransition?4cou@ 0000000180050ef8     sfc_debug:sfdb_breakpoints.obj
 0002:00004f20       ??_C@_0CH@JEIBGOOJ@numCols?5?$DN?$DN?5TOTAL_STATE_BREAKPOIN@ 0000000180050f20     sfc_debug:sfdb_breakpoints.obj
 0002:00004f48       ??_C@_0BO@BIKNFPLB@numRows?5?$DN?$DN?5chart?9?$DOstate?4count?$AA@ 0000000180050f48     sfc_debug:sfdb_breakpoints.obj
 0002:00004f68       ??_C@_0CH@BNLENKGD@numCols?5?$DN?$DN?5TOTAL_CHART_BREAKPOIN@ 0000000180050f68     sfc_debug:sfdb_breakpoints.obj
 0002:00004f90       ??_C@_0N@MEFFBAFI@numRows?5?$DN?$DN?51?$AA@ 0000000180050f90     sfc_debug:sfdb_breakpoints.obj
 0002:00004fa0       ??_C@_0BJ@BLHBHILO@sfdb_state_consistency?4c?$AA@ 0000000180050fa0     sfc_debug:sfdb_state_consistency.obj
 0002:00004fc0       ??_C@_09LHFAMEGK@errorType?$AA@ 0000000180050fc0     sfc_debug:sfdb_state_consistency.obj
 0002:00004fd0       ??_C@_08DLAIKNBK@objectId?$AA@ 0000000180050fd0     sfc_debug:sfdb_state_consistency.obj
 0002:00004fe0       ??_C@_0L@GODCDFEF@objectType?$AA@ 0000000180050fe0     sfc_debug:sfdb_state_consistency.obj
 0002:00004ff0       ??_C@_0L@CCGENCKP@errorStack?$AA@ 0000000180050ff0     sfc_debug:sfdb_state_consistency.obj
 0002:00005000       ??_C@_0O@PPHMCEKO@cycleDetected?$AA@ 0000000180051000     sfc_debug:sfdb_call_stack.obj
 0002:00005010       ??_C@_0N@MGKMJLEK@cycleStarted?$AA@ 0000000180051010     sfc_debug:sfdb_call_stack.obj
 0002:00005020       ??_C@_07BNCILGOA@tagType?$AA@ 0000000180051020     sfc_debug:sfdb_call_stack.obj
 0002:00005028       ??_C@_0L@POKIGEMP@eventScope?$AA@ 0000000180051028     sfc_debug:sfdb_call_stack.obj
 0002:00005038       ??_C@_0M@LKJJPLIC@traceVector?$AA@ 0000000180051038     sfc_debug:sfdb_call_stack.obj
 0002:00005050       ??_C@_0EC@MGCLADPL@?$CIinstance?9?$DOcycleDetection?4transi@ 0000000180051050     sfc_debug:sfdb_cycle_detection.obj
 0002:00005098       ??_C@_0BH@ELCAAKDD@sfdb_cycle_detection?4c?$AA@ 0000000180051098     sfc_debug:sfdb_cycle_detection.obj
 0002:000050b0       ??_C@_0O@PICIAFIK@newNode?$CB?$DNNULL?$AA@ 00000001800510b0     sfc_debug:sfdb_cycle_detection.obj
 0002:000050c0       _pRawDllMain               00000001800510c0     MSVCRT:crtdll.obj
 0002:000050c0       _pDefaultRawDllMain        00000001800510c0     MSVCRT:crtdll.obj
 0002:000050d8       ?ProcessDetach@NativeDll@<CrtImplementationDetails>@@0IB 00000001800510d8     MSVCRT:tncleanup.obj
 0002:000050dc       ?ProcessAttach@NativeDll@<CrtImplementationDetails>@@0IB 00000001800510dc     MSVCRT:tncleanup.obj
 0002:000050e0       ?ThreadAttach@NativeDll@<CrtImplementationDetails>@@0IB 00000001800510e0     MSVCRT:tncleanup.obj
 0002:000050e4       ?ThreadDetach@NativeDll@<CrtImplementationDetails>@@0IB 00000001800510e4     MSVCRT:tncleanup.obj
 0002:000050e8       ?ProcessVerifier@NativeDll@<CrtImplementationDetails>@@0IB 00000001800510e8     MSVCRT:tncleanup.obj
 0002:000050f0       __rtc_iaa                  00000001800510f0     MSVCRT:_initsect_.obj
 0002:000050f8       __rtc_izz                  00000001800510f8     MSVCRT:_initsect_.obj
 0002:00005100       __rtc_taa                  0000000180051100     MSVCRT:_initsect_.obj
 0002:00005108       __rtc_tzz                  0000000180051108     MSVCRT:_initsect_.obj
 0002:00009484       __IMPORT_DESCRIPTOR_libmx  0000000180055484     libmx:libmx.dll
 0002:00009498       __IMPORT_DESCRIPTOR_libmex 0000000180055498     libmex:libmex.dll
 0002:000094ac       __IMPORT_DESCRIPTOR_libfixedpoint 00000001800554ac     libfixedpoint:libfixedpoint.dll
 0002:000094c0       __IMPORT_DESCRIPTOR_libut  00000001800554c0     libut:libut.dll
 0002:000094d4       __IMPORT_DESCRIPTOR_libmwmathutil 00000001800554d4     libmwmathutil:libmwmathutil.dll
 0002:000094e8       __IMPORT_DESCRIPTOR_libemlrt 00000001800554e8     libemlrt:libemlrt.dll
 0002:000094fc       __IMPORT_DESCRIPTOR_MSVCR100 00000001800554fc     MSVCRT:MSVCR100.dll
 0002:00009510       __IMPORT_DESCRIPTOR_KERNEL32 0000000180055510     kernel32:KERNEL32.dll
 0002:00009524       __NULL_IMPORT_DESCRIPTOR   0000000180055524     libmx:libmx.dll
 0003:00004388       DYNAMIC_DIMENSION          000000018005b388     pendubot_simulate_1_8_5_2017_fuzzy_sfun_registry.obj
 0003:00005120       emlrtContextGlobal         000000018005c120     sfc_mex:sfc_mex.obj
 0003:000051c0       __security_cookie          000000018005c1c0     MSVCRT:gs_cookie.obj
 0003:000051c8       __security_cookie_complement 000000018005c1c8     MSVCRT:gs_cookie.obj
 0003:000051d0       _fltused                   000000018005c1d0     MSVCRT:dllsupp.obj
 0003:000051e0       __native_dllmain_reason    000000018005c1e0     MSVCRT:natstart.obj
 0003:000051e4       __native_vcclrit_reason    000000018005c1e4     MSVCRT:natstart.obj
 0003:00006418       emlrtRootTLSGlobal         000000018005d418     sfc_mex:sfc_mex.obj
 0003:00006708       sSFDebuggerInitialized     000000018005d708     sfc_debug:sfcdebug.obj
 0003:000077e0       ?__type_info_root_node@@3U__type_info_node@@A 000000018005e7e0     MSVCRT:tncleanup.obj
 0003:000077f0       _sfTime_                   000000018005e7f0     <common>
 0003:000077f8       _pendubot_simulate_1_8_5_2017_fuzzyMachineNumber_ 000000018005e7f8     <common>
 0003:00007800       gSfComplexDataTypeOffsets  000000018005e800     <common>
 0003:00007860       gSfDataTypeOffsets         000000018005e860     <common>
 0003:000078a8       gMaskBits                  000000018005e8a8     <common>
 0003:000078b0       __native_startup_state     000000018005e8b0     <common>
 0003:000078b8       __native_startup_lock      000000018005e8b8     <common>
 0003:000078c0       __onexitend                000000018005e8c0     <common>
 0003:000078c8       __onexitbegin              000000018005e8c8     <common>
 0003:000078d0       __dyn_tls_init_callback    000000018005e8d0     <common>

 entry point at        0001:0004a170

 Static symbols

 0001:00000440       c1_info_helper             0000000180001440 f   c1_pendubot_simulate_1_8_5_2017_fuzzy.obj
 0001:00001c80       get_sim_state_c1_pendubot_simulate_1_8_5_2017_fuzzy 0000000180002c80 f   c1_pendubot_simulate_1_8_5_2017_fuzzy.obj
 0001:00001e30       sf_get_sim_state_info_c1_pendubot_simulate_1_8_5_2017_fuzzy 0000000180002e30 f   c1_pendubot_simulate_1_8_5_2017_fuzzy.obj
 0001:00002010       set_sim_state_c1_pendubot_simulate_1_8_5_2017_fuzzy 0000000180003010 f   c1_pendubot_simulate_1_8_5_2017_fuzzy.obj
 0001:000020f0       c1_update_debugger_state_c1_pendubot_simulate_1_8_5_2017_fuzzy 00000001800030f0 f   c1_pendubot_simulate_1_8_5_2017_fuzzy.obj
 0001:00002100       c1_emlrt_marshallIn        0000000180003100 f   c1_pendubot_simulate_1_8_5_2017_fuzzy.obj
 0001:00002170       c1_b_emlrt_marshallIn      0000000180003170 f   c1_pendubot_simulate_1_8_5_2017_fuzzy.obj
 0001:00002200       c1_d_emlrt_marshallIn      0000000180003200 f   c1_pendubot_simulate_1_8_5_2017_fuzzy.obj
 0001:00002260       c1_e_emlrt_marshallIn      0000000180003260 f   c1_pendubot_simulate_1_8_5_2017_fuzzy.obj
 0001:00002360       mdlProcessParameters_c1_pendubot_simulate_1_8_5_2017_fuzzy 0000000180003360 f   c1_pendubot_simulate_1_8_5_2017_fuzzy.obj
 0001:00002420       initialize_params_c1_pendubot_simulate_1_8_5_2017_fuzzy 0000000180003420 f   c1_pendubot_simulate_1_8_5_2017_fuzzy.obj
 0001:00002430       mdlSetWorkWidths_c1_pendubot_simulate_1_8_5_2017_fuzzy 0000000180003430 f   c1_pendubot_simulate_1_8_5_2017_fuzzy.obj
 0001:00002a00       sf_get_instance_specialization 0000000180003a00 f   c1_pendubot_simulate_1_8_5_2017_fuzzy.obj
 0001:00002a10       mdlStart_c1_pendubot_simulate_1_8_5_2017_fuzzy 0000000180003a10 f   c1_pendubot_simulate_1_8_5_2017_fuzzy.obj
 0001:00002c10       init_dsm_address_info      0000000180003c10 f   c1_pendubot_simulate_1_8_5_2017_fuzzy.obj
 0001:00002c20       chart_debug_initialization 0000000180003c20 f   c1_pendubot_simulate_1_8_5_2017_fuzzy.obj
 0001:00003e70       init_script_number_translation 0000000180004e70 f   c1_pendubot_simulate_1_8_5_2017_fuzzy.obj
 0001:00003e80       c1_sf_marshallOut          0000000180004e80 f   c1_pendubot_simulate_1_8_5_2017_fuzzy.obj
 0001:00003f30       c1_sf_marshallIn           0000000180004f30 f   c1_pendubot_simulate_1_8_5_2017_fuzzy.obj
 0001:00003fd0       sf_opaque_initialize_c1_pendubot_simulate_1_8_5_2017_fuzzy 0000000180004fd0 f   c1_pendubot_simulate_1_8_5_2017_fuzzy.obj
 0001:00004010       initialize_c1_pendubot_simulate_1_8_5_2017_fuzzy 0000000180005010 f   c1_pendubot_simulate_1_8_5_2017_fuzzy.obj
 0001:00004060       sf_opaque_enable_c1_pendubot_simulate_1_8_5_2017_fuzzy 0000000180005060 f   c1_pendubot_simulate_1_8_5_2017_fuzzy.obj
 0001:00004080       enable_c1_pendubot_simulate_1_8_5_2017_fuzzy 0000000180005080 f   c1_pendubot_simulate_1_8_5_2017_fuzzy.obj
 0001:000040b0       sf_opaque_disable_c1_pendubot_simulate_1_8_5_2017_fuzzy 00000001800050b0 f   c1_pendubot_simulate_1_8_5_2017_fuzzy.obj
 0001:000040d0       disable_c1_pendubot_simulate_1_8_5_2017_fuzzy 00000001800050d0 f   c1_pendubot_simulate_1_8_5_2017_fuzzy.obj
 0001:00004100       sf_opaque_gateway_c1_pendubot_simulate_1_8_5_2017_fuzzy 0000000180005100 f   c1_pendubot_simulate_1_8_5_2017_fuzzy.obj
 0001:00004120       sf_c1_pendubot_simulate_1_8_5_2017_fuzzy 0000000180005120 f   c1_pendubot_simulate_1_8_5_2017_fuzzy.obj
 0001:00004610       c1_chartstep_c1_pendubot_simulate_1_8_5_2017_fuzzy 0000000180005610 f   c1_pendubot_simulate_1_8_5_2017_fuzzy.obj
 0001:00006540       c1_mpower                  0000000180007540 f   c1_pendubot_simulate_1_8_5_2017_fuzzy.obj
 0001:000065a0       c1_eml_scalar_eg           00000001800075a0 f   c1_pendubot_simulate_1_8_5_2017_fuzzy.obj
 0001:000065b0       sf_opaque_get_sim_state_c1_pendubot_simulate_1_8_5_2017_fuzzy 00000001800075b0 f   c1_pendubot_simulate_1_8_5_2017_fuzzy.obj
 0001:000065d0       sf_opaque_set_sim_state_c1_pendubot_simulate_1_8_5_2017_fuzzy 00000001800075d0 f   c1_pendubot_simulate_1_8_5_2017_fuzzy.obj
 0001:00006600       sf_opaque_terminate_c1_pendubot_simulate_1_8_5_2017_fuzzy 0000000180007600 f   c1_pendubot_simulate_1_8_5_2017_fuzzy.obj
 0001:00006680       finalize_c1_pendubot_simulate_1_8_5_2017_fuzzy 0000000180007680 f   c1_pendubot_simulate_1_8_5_2017_fuzzy.obj
 0001:00006690       sf_opaque_init_subchart_simstructs 0000000180007690 f   c1_pendubot_simulate_1_8_5_2017_fuzzy.obj
 0001:000066b0       initSimStructsc1_pendubot_simulate_1_8_5_2017_fuzzy 00000001800076b0 f   c1_pendubot_simulate_1_8_5_2017_fuzzy.obj
 0001:000066c0       mdlRTW_c1_pendubot_simulate_1_8_5_2017_fuzzy 00000001800076c0 f   c1_pendubot_simulate_1_8_5_2017_fuzzy.obj
 0001:00006bb0       c2_info_helper             0000000180007bb0 f   c2_pendubot_simulate_1_8_5_2017_fuzzy.obj
 0001:00007ee0       get_sim_state_c2_pendubot_simulate_1_8_5_2017_fuzzy 0000000180008ee0 f   c2_pendubot_simulate_1_8_5_2017_fuzzy.obj
 0001:00008140       sf_get_sim_state_info_c2_pendubot_simulate_1_8_5_2017_fuzzy 0000000180009140 f   c2_pendubot_simulate_1_8_5_2017_fuzzy.obj
 0001:00008320       set_sim_state_c2_pendubot_simulate_1_8_5_2017_fuzzy 0000000180009320 f   c2_pendubot_simulate_1_8_5_2017_fuzzy.obj
 0001:00008440       c2_update_debugger_state_c2_pendubot_simulate_1_8_5_2017_fuzzy 0000000180009440 f   c2_pendubot_simulate_1_8_5_2017_fuzzy.obj
 0001:00008450       c2_emlrt_marshallIn        0000000180009450 f   c2_pendubot_simulate_1_8_5_2017_fuzzy.obj
 0001:000084c0       c2_b_emlrt_marshallIn      00000001800094c0 f   c2_pendubot_simulate_1_8_5_2017_fuzzy.obj
 0001:00008550       c2_d_emlrt_marshallIn      0000000180009550 f   c2_pendubot_simulate_1_8_5_2017_fuzzy.obj
 0001:000085b0       c2_e_emlrt_marshallIn      00000001800095b0 f   c2_pendubot_simulate_1_8_5_2017_fuzzy.obj
 0001:000086b0       mdlProcessParameters_c2_pendubot_simulate_1_8_5_2017_fuzzy 00000001800096b0 f   c2_pendubot_simulate_1_8_5_2017_fuzzy.obj
 0001:00008770       initialize_params_c2_pendubot_simulate_1_8_5_2017_fuzzy 0000000180009770 f   c2_pendubot_simulate_1_8_5_2017_fuzzy.obj
 0001:00008780       mdlSetWorkWidths_c2_pendubot_simulate_1_8_5_2017_fuzzy 0000000180009780 f   c2_pendubot_simulate_1_8_5_2017_fuzzy.obj
 0001:00008c60       sf_get_instance_specialization 0000000180009c60 f   c2_pendubot_simulate_1_8_5_2017_fuzzy.obj
 0001:00008c70       mdlStart_c2_pendubot_simulate_1_8_5_2017_fuzzy 0000000180009c70 f   c2_pendubot_simulate_1_8_5_2017_fuzzy.obj
 0001:00008e70       init_dsm_address_info      0000000180009e70 f   c2_pendubot_simulate_1_8_5_2017_fuzzy.obj
 0001:00008e80       chart_debug_initialization 0000000180009e80 f   c2_pendubot_simulate_1_8_5_2017_fuzzy.obj
 0001:00009be0       init_script_number_translation 000000018000abe0 f   c2_pendubot_simulate_1_8_5_2017_fuzzy.obj
 0001:00009bf0       c2_sf_marshallOut          000000018000abf0 f   c2_pendubot_simulate_1_8_5_2017_fuzzy.obj
 0001:00009ca0       c2_sf_marshallIn           000000018000aca0 f   c2_pendubot_simulate_1_8_5_2017_fuzzy.obj
 0001:00009d40       sf_opaque_initialize_c2_pendubot_simulate_1_8_5_2017_fuzzy 000000018000ad40 f   c2_pendubot_simulate_1_8_5_2017_fuzzy.obj
 0001:00009d80       initialize_c2_pendubot_simulate_1_8_5_2017_fuzzy 000000018000ad80 f   c2_pendubot_simulate_1_8_5_2017_fuzzy.obj
 0001:00009dd0       sf_opaque_enable_c2_pendubot_simulate_1_8_5_2017_fuzzy 000000018000add0 f   c2_pendubot_simulate_1_8_5_2017_fuzzy.obj
 0001:00009df0       enable_c2_pendubot_simulate_1_8_5_2017_fuzzy 000000018000adf0 f   c2_pendubot_simulate_1_8_5_2017_fuzzy.obj
 0001:00009e20       sf_opaque_disable_c2_pendubot_simulate_1_8_5_2017_fuzzy 000000018000ae20 f   c2_pendubot_simulate_1_8_5_2017_fuzzy.obj
 0001:00009e40       disable_c2_pendubot_simulate_1_8_5_2017_fuzzy 000000018000ae40 f   c2_pendubot_simulate_1_8_5_2017_fuzzy.obj
 0001:00009e70       sf_opaque_gateway_c2_pendubot_simulate_1_8_5_2017_fuzzy 000000018000ae70 f   c2_pendubot_simulate_1_8_5_2017_fuzzy.obj
 0001:00009e90       sf_c2_pendubot_simulate_1_8_5_2017_fuzzy 000000018000ae90 f   c2_pendubot_simulate_1_8_5_2017_fuzzy.obj
 0001:0000a210       c2_chartstep_c2_pendubot_simulate_1_8_5_2017_fuzzy 000000018000b210 f   c2_pendubot_simulate_1_8_5_2017_fuzzy.obj
 0001:0000b630       c2_mpower                  000000018000c630 f   c2_pendubot_simulate_1_8_5_2017_fuzzy.obj
 0001:0000b690       c2_eml_scalar_eg           000000018000c690 f   c2_pendubot_simulate_1_8_5_2017_fuzzy.obj
 0001:0000b6a0       sf_opaque_get_sim_state_c2_pendubot_simulate_1_8_5_2017_fuzzy 000000018000c6a0 f   c2_pendubot_simulate_1_8_5_2017_fuzzy.obj
 0001:0000b6c0       sf_opaque_set_sim_state_c2_pendubot_simulate_1_8_5_2017_fuzzy 000000018000c6c0 f   c2_pendubot_simulate_1_8_5_2017_fuzzy.obj
 0001:0000b6f0       sf_opaque_terminate_c2_pendubot_simulate_1_8_5_2017_fuzzy 000000018000c6f0 f   c2_pendubot_simulate_1_8_5_2017_fuzzy.obj
 0001:0000b770       finalize_c2_pendubot_simulate_1_8_5_2017_fuzzy 000000018000c770 f   c2_pendubot_simulate_1_8_5_2017_fuzzy.obj
 0001:0000b780       sf_opaque_init_subchart_simstructs 000000018000c780 f   c2_pendubot_simulate_1_8_5_2017_fuzzy.obj
 0001:0000b7a0       initSimStructsc2_pendubot_simulate_1_8_5_2017_fuzzy 000000018000c7a0 f   c2_pendubot_simulate_1_8_5_2017_fuzzy.obj
 0001:0000b7b0       mdlRTW_c2_pendubot_simulate_1_8_5_2017_fuzzy 000000018000c7b0 f   c2_pendubot_simulate_1_8_5_2017_fuzzy.obj
 0001:0000c440       get_sim_state_c3_pendubot_simulate_1_8_5_2017_fuzzy 000000018000d440 f   c3_pendubot_simulate_1_8_5_2017_fuzzy.obj
 0001:0000c5e0       sf_get_sim_state_info_c3_pendubot_simulate_1_8_5_2017_fuzzy 000000018000d5e0 f   c3_pendubot_simulate_1_8_5_2017_fuzzy.obj
 0001:0000c7c0       set_sim_state_c3_pendubot_simulate_1_8_5_2017_fuzzy 000000018000d7c0 f   c3_pendubot_simulate_1_8_5_2017_fuzzy.obj
 0001:0000c8a0       c3_update_debugger_state_c3_pendubot_simulate_1_8_5_2017_fuzzy 000000018000d8a0 f   c3_pendubot_simulate_1_8_5_2017_fuzzy.obj
 0001:0000c8b0       c3_emlrt_marshallIn        000000018000d8b0 f   c3_pendubot_simulate_1_8_5_2017_fuzzy.obj
 0001:0000c920       c3_b_emlrt_marshallIn      000000018000d920 f   c3_pendubot_simulate_1_8_5_2017_fuzzy.obj
 0001:0000c9b0       c3_d_emlrt_marshallIn      000000018000d9b0 f   c3_pendubot_simulate_1_8_5_2017_fuzzy.obj
 0001:0000ca10       c3_e_emlrt_marshallIn      000000018000da10 f   c3_pendubot_simulate_1_8_5_2017_fuzzy.obj
 0001:0000cb10       mdlProcessParameters_c3_pendubot_simulate_1_8_5_2017_fuzzy 000000018000db10 f   c3_pendubot_simulate_1_8_5_2017_fuzzy.obj
 0001:0000cbd0       initialize_params_c3_pendubot_simulate_1_8_5_2017_fuzzy 000000018000dbd0 f   c3_pendubot_simulate_1_8_5_2017_fuzzy.obj
 0001:0000cbe0       mdlSetWorkWidths_c3_pendubot_simulate_1_8_5_2017_fuzzy 000000018000dbe0 f   c3_pendubot_simulate_1_8_5_2017_fuzzy.obj
 0001:0000d030       sf_get_instance_specialization 000000018000e030 f   c3_pendubot_simulate_1_8_5_2017_fuzzy.obj
 0001:0000d040       mdlStart_c3_pendubot_simulate_1_8_5_2017_fuzzy 000000018000e040 f   c3_pendubot_simulate_1_8_5_2017_fuzzy.obj
 0001:0000d240       init_dsm_address_info      000000018000e240 f   c3_pendubot_simulate_1_8_5_2017_fuzzy.obj
 0001:0000d250       chart_debug_initialization 000000018000e250 f   c3_pendubot_simulate_1_8_5_2017_fuzzy.obj
 0001:0000db90       init_script_number_translation 000000018000eb90 f   c3_pendubot_simulate_1_8_5_2017_fuzzy.obj
 0001:0000dba0       c3_sf_marshallOut          000000018000eba0 f   c3_pendubot_simulate_1_8_5_2017_fuzzy.obj
 0001:0000dc50       c3_sf_marshallIn           000000018000ec50 f   c3_pendubot_simulate_1_8_5_2017_fuzzy.obj
 0001:0000dcf0       sf_opaque_initialize_c3_pendubot_simulate_1_8_5_2017_fuzzy 000000018000ecf0 f   c3_pendubot_simulate_1_8_5_2017_fuzzy.obj
 0001:0000dd30       initialize_c3_pendubot_simulate_1_8_5_2017_fuzzy 000000018000ed30 f   c3_pendubot_simulate_1_8_5_2017_fuzzy.obj
 0001:0000dd80       sf_opaque_enable_c3_pendubot_simulate_1_8_5_2017_fuzzy 000000018000ed80 f   c3_pendubot_simulate_1_8_5_2017_fuzzy.obj
 0001:0000dda0       enable_c3_pendubot_simulate_1_8_5_2017_fuzzy 000000018000eda0 f   c3_pendubot_simulate_1_8_5_2017_fuzzy.obj
 0001:0000ddd0       sf_opaque_disable_c3_pendubot_simulate_1_8_5_2017_fuzzy 000000018000edd0 f   c3_pendubot_simulate_1_8_5_2017_fuzzy.obj
 0001:0000ddf0       disable_c3_pendubot_simulate_1_8_5_2017_fuzzy 000000018000edf0 f   c3_pendubot_simulate_1_8_5_2017_fuzzy.obj
 0001:0000de20       sf_opaque_gateway_c3_pendubot_simulate_1_8_5_2017_fuzzy 000000018000ee20 f   c3_pendubot_simulate_1_8_5_2017_fuzzy.obj
 0001:0000de40       sf_c3_pendubot_simulate_1_8_5_2017_fuzzy 000000018000ee40 f   c3_pendubot_simulate_1_8_5_2017_fuzzy.obj
 0001:0000e790       sf_opaque_get_sim_state_c3_pendubot_simulate_1_8_5_2017_fuzzy 000000018000f790 f   c3_pendubot_simulate_1_8_5_2017_fuzzy.obj
 0001:0000e7b0       sf_opaque_set_sim_state_c3_pendubot_simulate_1_8_5_2017_fuzzy 000000018000f7b0 f   c3_pendubot_simulate_1_8_5_2017_fuzzy.obj
 0001:0000e7e0       sf_opaque_terminate_c3_pendubot_simulate_1_8_5_2017_fuzzy 000000018000f7e0 f   c3_pendubot_simulate_1_8_5_2017_fuzzy.obj
 0001:0000e860       finalize_c3_pendubot_simulate_1_8_5_2017_fuzzy 000000018000f860 f   c3_pendubot_simulate_1_8_5_2017_fuzzy.obj
 0001:0000e870       sf_opaque_init_subchart_simstructs 000000018000f870 f   c3_pendubot_simulate_1_8_5_2017_fuzzy.obj
 0001:0000e890       initSimStructsc3_pendubot_simulate_1_8_5_2017_fuzzy 000000018000f890 f   c3_pendubot_simulate_1_8_5_2017_fuzzy.obj
 0001:0000e8a0       mdlRTW_c3_pendubot_simulate_1_8_5_2017_fuzzy 000000018000f8a0 f   c3_pendubot_simulate_1_8_5_2017_fuzzy.obj
 0001:0000ed20       c4_info_helper             000000018000fd20 f   c4_pendubot_simulate_1_8_5_2017_fuzzy.obj
 0001:000106a0       get_sim_state_c4_pendubot_simulate_1_8_5_2017_fuzzy 00000001800116a0 f   c4_pendubot_simulate_1_8_5_2017_fuzzy.obj
 0001:00010840       sf_get_sim_state_info_c4_pendubot_simulate_1_8_5_2017_fuzzy 0000000180011840 f   c4_pendubot_simulate_1_8_5_2017_fuzzy.obj
 0001:00010a20       set_sim_state_c4_pendubot_simulate_1_8_5_2017_fuzzy 0000000180011a20 f   c4_pendubot_simulate_1_8_5_2017_fuzzy.obj
 0001:00010b00       c4_update_debugger_state_c4_pendubot_simulate_1_8_5_2017_fuzzy 0000000180011b00 f   c4_pendubot_simulate_1_8_5_2017_fuzzy.obj
 0001:00010b10       c4_emlrt_marshallIn        0000000180011b10 f   c4_pendubot_simulate_1_8_5_2017_fuzzy.obj
 0001:00010b80       c4_b_emlrt_marshallIn      0000000180011b80 f   c4_pendubot_simulate_1_8_5_2017_fuzzy.obj
 0001:00010c10       c4_d_emlrt_marshallIn      0000000180011c10 f   c4_pendubot_simulate_1_8_5_2017_fuzzy.obj
 0001:00010c70       c4_e_emlrt_marshallIn      0000000180011c70 f   c4_pendubot_simulate_1_8_5_2017_fuzzy.obj
 0001:00010d70       mdlProcessParameters_c4_pendubot_simulate_1_8_5_2017_fuzzy 0000000180011d70 f   c4_pendubot_simulate_1_8_5_2017_fuzzy.obj
 0001:00010e30       initialize_params_c4_pendubot_simulate_1_8_5_2017_fuzzy 0000000180011e30 f   c4_pendubot_simulate_1_8_5_2017_fuzzy.obj
 0001:00010e40       mdlSetWorkWidths_c4_pendubot_simulate_1_8_5_2017_fuzzy 0000000180011e40 f   c4_pendubot_simulate_1_8_5_2017_fuzzy.obj
 0001:00011440       sf_get_instance_specialization 0000000180012440 f   c4_pendubot_simulate_1_8_5_2017_fuzzy.obj
 0001:00011450       mdlStart_c4_pendubot_simulate_1_8_5_2017_fuzzy 0000000180012450 f   c4_pendubot_simulate_1_8_5_2017_fuzzy.obj
 0001:00011650       init_dsm_address_info      0000000180012650 f   c4_pendubot_simulate_1_8_5_2017_fuzzy.obj
 0001:00011660       chart_debug_initialization 0000000180012660 f   c4_pendubot_simulate_1_8_5_2017_fuzzy.obj
 0001:000129f0       init_script_number_translation 00000001800139f0 f   c4_pendubot_simulate_1_8_5_2017_fuzzy.obj
 0001:00012a00       c4_sf_marshallOut          0000000180013a00 f   c4_pendubot_simulate_1_8_5_2017_fuzzy.obj
 0001:00012ab0       c4_sf_marshallIn           0000000180013ab0 f   c4_pendubot_simulate_1_8_5_2017_fuzzy.obj
 0001:00012b50       sf_opaque_initialize_c4_pendubot_simulate_1_8_5_2017_fuzzy 0000000180013b50 f   c4_pendubot_simulate_1_8_5_2017_fuzzy.obj
 0001:00012b90       initialize_c4_pendubot_simulate_1_8_5_2017_fuzzy 0000000180013b90 f   c4_pendubot_simulate_1_8_5_2017_fuzzy.obj
 0001:00012be0       sf_opaque_enable_c4_pendubot_simulate_1_8_5_2017_fuzzy 0000000180013be0 f   c4_pendubot_simulate_1_8_5_2017_fuzzy.obj
 0001:00012c00       enable_c4_pendubot_simulate_1_8_5_2017_fuzzy 0000000180013c00 f   c4_pendubot_simulate_1_8_5_2017_fuzzy.obj
 0001:00012c30       sf_opaque_disable_c4_pendubot_simulate_1_8_5_2017_fuzzy 0000000180013c30 f   c4_pendubot_simulate_1_8_5_2017_fuzzy.obj
 0001:00012c50       disable_c4_pendubot_simulate_1_8_5_2017_fuzzy 0000000180013c50 f   c4_pendubot_simulate_1_8_5_2017_fuzzy.obj
 0001:00012c80       sf_opaque_gateway_c4_pendubot_simulate_1_8_5_2017_fuzzy 0000000180013c80 f   c4_pendubot_simulate_1_8_5_2017_fuzzy.obj
 0001:00012ca0       sf_c4_pendubot_simulate_1_8_5_2017_fuzzy 0000000180013ca0 f   c4_pendubot_simulate_1_8_5_2017_fuzzy.obj
 0001:000131f0       c4_chartstep_c4_pendubot_simulate_1_8_5_2017_fuzzy 00000001800141f0 f   c4_pendubot_simulate_1_8_5_2017_fuzzy.obj
 0001:00015520       c4_mpower                  0000000180016520 f   c4_pendubot_simulate_1_8_5_2017_fuzzy.obj
 0001:00015580       c4_eml_scalar_eg           0000000180016580 f   c4_pendubot_simulate_1_8_5_2017_fuzzy.obj
 0001:00015590       sf_opaque_get_sim_state_c4_pendubot_simulate_1_8_5_2017_fuzzy 0000000180016590 f   c4_pendubot_simulate_1_8_5_2017_fuzzy.obj
 0001:000155b0       sf_opaque_set_sim_state_c4_pendubot_simulate_1_8_5_2017_fuzzy 00000001800165b0 f   c4_pendubot_simulate_1_8_5_2017_fuzzy.obj
 0001:000155e0       sf_opaque_terminate_c4_pendubot_simulate_1_8_5_2017_fuzzy 00000001800165e0 f   c4_pendubot_simulate_1_8_5_2017_fuzzy.obj
 0001:00015660       finalize_c4_pendubot_simulate_1_8_5_2017_fuzzy 0000000180016660 f   c4_pendubot_simulate_1_8_5_2017_fuzzy.obj
 0001:00015670       sf_opaque_init_subchart_simstructs 0000000180016670 f   c4_pendubot_simulate_1_8_5_2017_fuzzy.obj
 0001:00015690       initSimStructsc4_pendubot_simulate_1_8_5_2017_fuzzy 0000000180016690 f   c4_pendubot_simulate_1_8_5_2017_fuzzy.obj
 0001:000156a0       mdlRTW_c4_pendubot_simulate_1_8_5_2017_fuzzy 00000001800166a0 f   c4_pendubot_simulate_1_8_5_2017_fuzzy.obj
 0001:00015cf0       get_sim_state_c5_pendubot_simulate_1_8_5_2017_fuzzy 0000000180016cf0 f   c5_pendubot_simulate_1_8_5_2017_fuzzy.obj
 0001:00015e90       sf_get_sim_state_info_c5_pendubot_simulate_1_8_5_2017_fuzzy 0000000180016e90 f   c5_pendubot_simulate_1_8_5_2017_fuzzy.obj
 0001:00016070       set_sim_state_c5_pendubot_simulate_1_8_5_2017_fuzzy 0000000180017070 f   c5_pendubot_simulate_1_8_5_2017_fuzzy.obj
 0001:00016150       c5_update_debugger_state_c5_pendubot_simulate_1_8_5_2017_fuzzy 0000000180017150 f   c5_pendubot_simulate_1_8_5_2017_fuzzy.obj
 0001:00016160       c5_emlrt_marshallIn        0000000180017160 f   c5_pendubot_simulate_1_8_5_2017_fuzzy.obj
 0001:000161d0       c5_b_emlrt_marshallIn      00000001800171d0 f   c5_pendubot_simulate_1_8_5_2017_fuzzy.obj
 0001:00016260       c5_d_emlrt_marshallIn      0000000180017260 f   c5_pendubot_simulate_1_8_5_2017_fuzzy.obj
 0001:000162c0       c5_e_emlrt_marshallIn      00000001800172c0 f   c5_pendubot_simulate_1_8_5_2017_fuzzy.obj
 0001:000163c0       mdlProcessParameters_c5_pendubot_simulate_1_8_5_2017_fuzzy 00000001800173c0 f   c5_pendubot_simulate_1_8_5_2017_fuzzy.obj
 0001:00016480       initialize_params_c5_pendubot_simulate_1_8_5_2017_fuzzy 0000000180017480 f   c5_pendubot_simulate_1_8_5_2017_fuzzy.obj
 0001:00016490       mdlSetWorkWidths_c5_pendubot_simulate_1_8_5_2017_fuzzy 0000000180017490 f   c5_pendubot_simulate_1_8_5_2017_fuzzy.obj
 0001:000168b0       sf_get_instance_specialization 00000001800178b0 f   c5_pendubot_simulate_1_8_5_2017_fuzzy.obj
 0001:000168c0       mdlStart_c5_pendubot_simulate_1_8_5_2017_fuzzy 00000001800178c0 f   c5_pendubot_simulate_1_8_5_2017_fuzzy.obj
 0001:00016ac0       init_dsm_address_info      0000000180017ac0 f   c5_pendubot_simulate_1_8_5_2017_fuzzy.obj
 0001:00016ad0       chart_debug_initialization 0000000180017ad0 f   c5_pendubot_simulate_1_8_5_2017_fuzzy.obj
 0001:000172a0       init_script_number_translation 00000001800182a0 f   c5_pendubot_simulate_1_8_5_2017_fuzzy.obj
 0001:000172b0       c5_sf_marshallOut          00000001800182b0 f   c5_pendubot_simulate_1_8_5_2017_fuzzy.obj
 0001:00017360       c5_sf_marshallIn           0000000180018360 f   c5_pendubot_simulate_1_8_5_2017_fuzzy.obj
 0001:00017400       sf_opaque_initialize_c5_pendubot_simulate_1_8_5_2017_fuzzy 0000000180018400 f   c5_pendubot_simulate_1_8_5_2017_fuzzy.obj
 0001:00017440       initialize_c5_pendubot_simulate_1_8_5_2017_fuzzy 0000000180018440 f   c5_pendubot_simulate_1_8_5_2017_fuzzy.obj
 0001:00017490       sf_opaque_enable_c5_pendubot_simulate_1_8_5_2017_fuzzy 0000000180018490 f   c5_pendubot_simulate_1_8_5_2017_fuzzy.obj
 0001:000174b0       enable_c5_pendubot_simulate_1_8_5_2017_fuzzy 00000001800184b0 f   c5_pendubot_simulate_1_8_5_2017_fuzzy.obj
 0001:000174e0       sf_opaque_disable_c5_pendubot_simulate_1_8_5_2017_fuzzy 00000001800184e0 f   c5_pendubot_simulate_1_8_5_2017_fuzzy.obj
 0001:00017500       disable_c5_pendubot_simulate_1_8_5_2017_fuzzy 0000000180018500 f   c5_pendubot_simulate_1_8_5_2017_fuzzy.obj
 0001:00017530       sf_opaque_gateway_c5_pendubot_simulate_1_8_5_2017_fuzzy 0000000180018530 f   c5_pendubot_simulate_1_8_5_2017_fuzzy.obj
 0001:00017550       sf_c5_pendubot_simulate_1_8_5_2017_fuzzy 0000000180018550 f   c5_pendubot_simulate_1_8_5_2017_fuzzy.obj
 0001:00017ce0       sf_opaque_get_sim_state_c5_pendubot_simulate_1_8_5_2017_fuzzy 0000000180018ce0 f   c5_pendubot_simulate_1_8_5_2017_fuzzy.obj
 0001:00017d00       sf_opaque_set_sim_state_c5_pendubot_simulate_1_8_5_2017_fuzzy 0000000180018d00 f   c5_pendubot_simulate_1_8_5_2017_fuzzy.obj
 0001:00017d30       sf_opaque_terminate_c5_pendubot_simulate_1_8_5_2017_fuzzy 0000000180018d30 f   c5_pendubot_simulate_1_8_5_2017_fuzzy.obj
 0001:00017db0       finalize_c5_pendubot_simulate_1_8_5_2017_fuzzy 0000000180018db0 f   c5_pendubot_simulate_1_8_5_2017_fuzzy.obj
 0001:00017dc0       sf_opaque_init_subchart_simstructs 0000000180018dc0 f   c5_pendubot_simulate_1_8_5_2017_fuzzy.obj
 0001:00017de0       initSimStructsc5_pendubot_simulate_1_8_5_2017_fuzzy 0000000180018de0 f   c5_pendubot_simulate_1_8_5_2017_fuzzy.obj
 0001:00017df0       mdlRTW_c5_pendubot_simulate_1_8_5_2017_fuzzy 0000000180018df0 f   c5_pendubot_simulate_1_8_5_2017_fuzzy.obj
 0001:000199e0       _ssFatalError              000000018001a9e0 f   pendubot_simulate_1_8_5_2017_fuzzy_sfun_registry.obj
 0001:0001ca90       ProcessMexSfunctionCmdLineCall 000000018001da90 f   pendubot_simulate_1_8_5_2017_fuzzy_sfun_registry.obj
 0001:0001cb80       mdlGetTimeOfNextVarHit     000000018001db80 f   pendubot_simulate_1_8_5_2017_fuzzy_sfun_registry.obj
 0001:0001cbd0       _ProcessMexSfunctionCmdLineCall 000000018001dbd0 f   pendubot_simulate_1_8_5_2017_fuzzy_sfun_registry.obj
 0001:0001d320       _CreateSimStruct           000000018001e320 f   pendubot_simulate_1_8_5_2017_fuzzy_sfun_registry.obj
 0001:0001d4b0       _RegNumInputPortsCB        000000018001e4b0 f   pendubot_simulate_1_8_5_2017_fuzzy_sfun_registry.obj
 0001:0001d530       _RegNumOutputPortsCB       000000018001e530 f   pendubot_simulate_1_8_5_2017_fuzzy_sfun_registry.obj
 0001:0001d610       sf_machine_load_sfunction_ptrs 000000018001e610 f   pendubot_simulate_1_8_5_2017_fuzzy_sfun_registry.obj
 0001:0001e260       getThreadLocalStorage      000000018001f260 f   sfc_mex:sfc_mex.obj
 0001:0001e2a0       releaseThreadLocalStorage  000000018001f2a0 f   sfc_mex:sfc_mex.obj
 0001:0001e2b0       SNPRINTF_WRAPPER           000000018001f2b0 f   sfc_mex:sfc_mex.obj
 0001:0001e2d0       convert_dims_to_string     000000018001f2d0 f   sfc_mex:sfc_mex.obj
 0001:0001e4f0       is_real_T_equal_to_double  000000018001f4f0 f   sfc_mex:sfc_mex.obj
 0001:0001e510       is_real32_T_equal_to_double 000000018001f510 f   sfc_mex:sfc_mex.obj
 0001:0001e520       is_mxLogical_equal_to_double 000000018001f520 f   sfc_mex:sfc_mex.obj
 0001:0001e540       is_int8_T_equal_to_double  000000018001f540 f   sfc_mex:sfc_mex.obj
 0001:0001e560       is_uint8_T_equal_to_double 000000018001f560 f   sfc_mex:sfc_mex.obj
 0001:0001e580       is_int16_T_equal_to_double 000000018001f580 f   sfc_mex:sfc_mex.obj
 0001:0001e5a0       is_uint16_T_equal_to_double 000000018001f5a0 f   sfc_mex:sfc_mex.obj
 0001:0001e5c0       is_int32_T_equal_to_double 000000018001f5c0 f   sfc_mex:sfc_mex.obj
 0001:0001e5e0       is_uint32_T_equal_to_double 000000018001f5e0 f   sfc_mex:sfc_mex.obj
 0001:0001e600       is_char_T_equal_to_double  000000018001f600 f   sfc_mex:sfc_mex.obj
 0001:0001e620       sf_zero_numeric_value      000000018001f620 f   sfc_mex:sfc_mex.obj
 0001:0001e650       sf_error_append_debugger_context_if_available 000000018001f650 f   sfc_mex:sfc_mex.obj
 0001:0001e720       sf_mex_get_error_message_for_write 000000018001f720 f   sfc_mex:sfc_mex.obj
 0001:0001e750       replace_single_quotes_by_doubled_quotes 000000018001f750 f   sfc_mex:sfc_mex.obj
 0001:0001e990       sf_mex_get_formatted_error_string 000000018001f990 f   sfc_mex:sfc_mex.obj
 0001:0001ef10       sf_mex_destroy_array       000000018001ff10 f   sfc_mex:sfc_mex.obj
 0001:0001f2a0       sfrtAddSize                00000001800202a0 f   sfc_mex:sfc_mex.obj
 0001:0001f360       sfrtGenSizeString          0000000180020360 f   sfc_mex:sfc_mex.obj
 0001:0001f3d0       sfIsProperVector           00000001800203d0 f   sfc_mex:sfc_mex.obj
 0001:0001f400       sfIsRowVector              0000000180020400 f   sfc_mex:sfc_mex.obj
 0001:0001f540       sf_ExtractMessageId        0000000180020540 f   sfc_mex:sfc_mex.obj
 0001:0001f820       sf_mex_err                 0000000180020820 f   sfc_mex:sfc_mex.obj
 0001:0001f8d0       sf_error_dimension_out_of_bound 00000001800208d0 f   sfc_mex:sfc_mex.obj
 0001:0001f990       sf_mex_check_and_set_actual_dimensions 0000000180020990 f   sfc_mex:sfc_mex.obj
 0001:0001fb70       sf_mex_check_complex       0000000180020b70 f   sfc_mex:sfc_mex.obj
 0001:0001fc00       sf_mex_check_sparse        0000000180020c00 f   sfc_mex:sfc_mex.obj
 0001:0001fc60       sf_mex_check_numerictype   0000000180020c60 f   sfc_mex:sfc_mex.obj
 0001:0001fdf0       sf_mex_check_fimath        0000000180020df0 f   sfc_mex:sfc_mex.obj
 0001:000209a0       size_mismatch_error        00000001800219a0 f   sfc_mex:sfc_mex.obj
 0001:00021440       check_array_dimensions     0000000180022440 f   sfc_mex:sfc_mex.obj
 0001:000214b0       check_input_mxarray        00000001800224b0 f   sfc_mex:sfc_mex.obj
 0001:00021bf0       sf_numeric_value_to_double 0000000180022bf0 f   sfc_mex:sfc_mex.obj
 0001:00021c40       ml_generic_out_of_bounds_check 0000000180022c40 f   sfc_mex:sfc_mex.obj
 0001:00021e10       ml_get_element_value_from_array 0000000180022e10 f   sfc_mex:sfc_mex.obj
 0001:000221b0       _ml_generic_castability_check 00000001800231b0 f   sfc_mex:sfc_mex.obj
 0001:00022f10       ml_generic_castability_check 0000000180023f10 f   sfc_mex:sfc_mex.obj
 0001:00022fb0       ml_check_mx_array_for_single_castability 0000000180023fb0 f   sfc_mex:sfc_mex.obj
 0001:00023050       ml_check_mx_array_for_logical_castability 0000000180024050 f   sfc_mex:sfc_mex.obj
 0001:000230f0       ml_check_mx_array_for_int8_castability 00000001800240f0 f   sfc_mex:sfc_mex.obj
 0001:000231a0       ml_check_mx_array_for_uint8_castability 00000001800241a0 f   sfc_mex:sfc_mex.obj
 0001:00023200       ml_check_mx_array_for_int16_castability 0000000180024200 f   sfc_mex:sfc_mex.obj
 0001:00023260       ml_check_mx_array_for_uint16_castability 0000000180024260 f   sfc_mex:sfc_mex.obj
 0001:000232c0       ml_check_mx_array_for_int32_castability 00000001800242c0 f   sfc_mex:sfc_mex.obj
 0001:00023320       ml_check_mx_array_for_uint32_castability 0000000180024320 f   sfc_mex:sfc_mex.obj
 0001:00023380       ml_check_mx_array_for_castability 0000000180024380 f   sfc_mex:sfc_mex.obj
 0001:00023cb0       set_data_value             0000000180024cb0 f   sfc_mex:sfc_mex.obj
 0001:00024020       get_data_value             0000000180025020 f   sfc_mex:sfc_mex.obj
 0001:00024130       get_next_element_address   0000000180025130 f   sfc_mex:sfc_mex.obj
 0001:00024200       sf_normalize_index         0000000180025200 f   sfc_mex:sfc_mex.obj
 0001:00024590       ml_array_index_bound_check 0000000180025590 f   sfc_mex:sfc_mex.obj
 0001:000250b0       mx_value                   00000001800260b0 f   sfc_mex:sfc_mex.obj
 0001:00025100       sf_create_numeric_array    0000000180026100 f   sfc_mex:sfc_mex.obj
 0001:000251a0       sf_mex_assign_to_mx_array  00000001800261a0 f   sfc_mex:sfc_mex.obj
 0001:000254f0       assign_from_mx_array       00000001800264f0 f   sfc_mex:sfc_mex.obj
 0001:00025d20       sf_mex_import_v            0000000180026d20 f   sfc_mex:sfc_mex.obj
 0001:00026420       get_machine_and_chart_file_number 0000000180027420 f   sfc_mex:sfc_sf.obj
 0001:00026510       get_sfun_block_specialization 0000000180027510 f   sfc_mex:sfc_sf.obj
 0001:000265c0       call_sf_machine_global_method_dispatcher 00000001800275c0 f   sfc_mex:sfc_sf.obj
 0001:00026810       mdl_zeroCrossings_processing 0000000180027810 f   sfc_mex:sfc_sf.obj
 0001:000268e0       mdl_derivatives_processing 00000001800278e0 f   sfc_mex:sfc_sf.obj
 0001:00026ba0       mdl_outputs_continuous_legacy 0000000180027ba0 f   sfc_mex:sfc_sf.obj
 0001:00026c20       mdl_outputs_processing     0000000180027c20 f   sfc_mex:sfc_sf.obj
 0001:00026e90       mdl_enable_processing      0000000180027e90 f   sfc_mex:sfc_sf.obj
 0001:00026f60       mdl_disable_processing     0000000180027f60 f   sfc_mex:sfc_sf.obj
 0001:00027cd0       sf_call_output_fcn_enable_disable 0000000180028cd0 f   sfc_mex:sfc_sf.obj
 0001:00027f50       set_dwork_information_from_mx_array 0000000180028f50 f   sfc_mex:sfc_sf.obj
 0001:00028810       ptr2mxStruct               0000000180029810 f   sfc_mex:sfc_sf.obj
 0001:00028b20       SNPRINTF_WRAPPER           0000000180029b20 f   sfc_debug:sfcdebug.obj
 0001:00028b40       sf_debug_chart_instance_initialized_quick 0000000180029b40 f   sfc_debug:sfcdebug.obj
 0001:00028b50       sf_debug_chart_instance_initialized 0000000180029b50 f   sfc_debug:sfcdebug.obj
 0001:00028cf0       sfrtAddSize                0000000180029cf0 f   sfc_debug:sfcdebug.obj
 0001:00028db0       sfrtGenSizeString          0000000180029db0 f   sfc_debug:sfcdebug.obj
 0001:000294c0       fill_single_message_info   000000018002a4c0 f   sfc_debug:sfcdebug.obj
 0001:00029680       sf_debug_sim_status_listener 000000018002a680 f   sfc_debug:sfcdebug.obj
 0001:00029bf0       sf_debug_form_mask_bits    000000018002abf0 f   sfc_debug:sfcdebug.obj
 0001:00029c30       sf_debug_form_sf_data_type_offsets 000000018002ac30 f   sfc_debug:sfcdebug.obj
 0001:00029cf0       sf_debug_free_all          000000018002acf0 f   sfc_debug:sfcdebug.obj
 0001:00029ea0       sf_debug_append_debugger_context 000000018002aea0 f   sfc_debug:sfcdebug.obj
 0001:0002a040       sf_debug_update_always_honor_breakpoints 000000018002b040 f   sfc_debug:sfcdebug.obj
 0001:0002a210       local_strdup               000000018002b210 f   sfc_debug:sfcdebug.obj
 0001:0002b0f0       sf_debug_em_terminate      000000018002c0f0 f   sfc_debug:sfcdebug.obj
 0001:0002b130       sf_debug_push_eml_function 000000018002c130 f   sfc_debug:sfcdebug.obj
 0001:0002b1d0       sf_debug_pop_eml_function  000000018002c1d0 f   sfc_debug:sfcdebug.obj
 0001:0002bed0       sf_debug_get_machine_number_from_id_or_name 000000018002ced0 f   sfc_debug:sfcdebug.obj
 0001:0002c020       sf_debug_get_chart_number_from_id 000000018002d020 f   sfc_debug:sfcdebug.obj
 0001:0002cdc0       sf_debug_transfer_control_to_debugger_GUI 000000018002ddc0 f   sfc_debug:sfcdebug.obj
 0001:0002dd50       sf_debug_scripts_rehash    000000018002ed50 f   sfc_debug:sfcdebug.obj
 0001:0002df90       sf_debug_get_script_line_count 000000018002ef90 f   sfc_debug:sfcdebug.obj
 0001:0002e8c0       cv_eml_state_cvId          000000018002f8c0 f   sfc_debug:sfcdebug.obj
 0001:0002e930       cv_eml_trans_cvId          000000018002f930 f   sfc_debug:sfcdebug.obj
 0001:0002fcc0       sf_debug_data_array_bounds_error 0000000180030cc0 f   sfc_debug:sfcdebug.obj
 0001:000300f0       eml_debug_runtime_error_doclink 00000001800310f0 f   sfc_debug:sfcdebug.obj
 0001:00030250       sf_debug_runtime_error     0000000180031250 f   sfc_debug:sfcdebug.obj
 0001:000302c0       sf_debug_matlab_error      00000001800312c0 f   sfc_debug:sfcdebug.obj
 0001:00030c00       sf_debug_data_value_error  0000000180031c00 f   sfc_debug:sfcdebug.obj
 0001:00031500       sf_debug_data_loss_error   0000000180032500 f   sfc_debug:sfcdebug.obj
 0001:00032490       call_cv_range_check        0000000180033490 f   sfc_debug:sfcdebug.obj
 0001:00032c60       sf_debug_invoke_cycle_detection_code 0000000180033c60 f   sfc_debug:sfcdebug.obj
 0001:00033ae0       sf_reset_debug_info_struct 0000000180034ae0 f   sfc_debug:sfcdebug.obj
 0001:00034340       cv_script_cvId             0000000180035340 f   sfc_debug:sfcdebug.obj
 0001:000350a0       sfc_api_chart_visible      00000001800360a0 f   sfc_debug:sfc_api.obj
 0001:00035120       sfc_api_active_instance    0000000180036120 f   sfc_debug:sfc_api.obj
 0001:000351a0       sfc_api_machine_load       00000001800361a0 f   sfc_debug:sfc_api.obj
 0001:00035270       sfc_api_debugger_alive     0000000180036270 f   sfc_debug:sfc_api.obj
 0001:00035280       sfc_api_go                 0000000180036280 f   sfc_debug:sfc_api.obj
 0001:00035290       sfc_api_step_over          0000000180036290 f   sfc_debug:sfc_api.obj
 0001:000352a0       sfc_api_step_out           00000001800362a0 f   sfc_debug:sfc_api.obj
 0001:000352b0       sfc_api_resume             00000001800362b0 f   sfc_debug:sfc_api.obj
 0001:000352c0       sfc_api_break              00000001800362c0 f   sfc_debug:sfc_api.obj
 0001:000352d0       sfc_api_stop_debugging     00000001800362d0 f   sfc_debug:sfc_api.obj
 0001:00035320       sfc_api_is_cycle_detected  0000000180036320 f   sfc_debug:sfc_api.obj
 0001:00035370       sfc_api_is_array_bounds_detected 0000000180036370 f   sfc_debug:sfc_api.obj
 0001:000353c0       sfc_api_set_disable_all_breakpoints 00000001800363c0 f   sfc_debug:sfc_api.obj
 0001:00035430       sfc_api_disable_all_breakpoints_and_go 0000000180036430 f   sfc_debug:sfc_api.obj
 0001:00035440       sfc_api_close              0000000180036440 f   sfc_debug:sfc_api.obj
 0001:00035450       sfc_api_browse_data        0000000180036450 f   sfc_debug:sfc_api.obj
 0001:000354c0       sfc_api_watch_data         00000001800364c0 f   sfc_debug:sfc_api.obj
 0001:000355c0       sfc_api_extract_message_post_receive_info 00000001800365c0 f   sfc_debug:sfc_api.obj
 0001:000355e0       sfc_api_assign_data        00000001800365e0 f   sfc_debug:sfc_api.obj
 0001:00035680       sfc_api_whos               0000000180036680 f   sfc_debug:sfc_api.obj
 0001:00035710       sfc_api_get_consistency_info 0000000180036710 f   sfc_debug:sfc_api.obj
 0001:00035720       sfc_api_browse_trace       0000000180036720 f   sfc_debug:sfc_api.obj
 0001:00035730       sfc_api_break_on_chart_entry 0000000180036730 f   sfc_debug:sfc_api.obj
 0001:00035750       sfc_api_break_on_event_broadcast 0000000180036750 f   sfc_debug:sfc_api.obj
 0001:00035770       sfc_api_break_on_state_entry 0000000180036770 f   sfc_debug:sfc_api.obj
 0001:00035790       sfc_api_set_watch          0000000180036790 f   sfc_debug:sfc_api.obj
 0001:00035830       sfc_api_set_breakpoints    0000000180036830 f   sfc_debug:sfc_api.obj
 0001:000358d0       sfc_api_set_eml_breakpoints 00000001800368d0 f   sfc_debug:sfc_api.obj
 0001:00035950       sfc_api_set_script_breakpoints 0000000180036950 f   sfc_debug:sfc_api.obj
 0001:000359a0       sfc_api_add_script_breakpoints 00000001800369a0 f   sfc_debug:sfc_api.obj
 0001:000359f0       sfc_api_clear_script_breakpoints 00000001800369f0 f   sfc_debug:sfc_api.obj
 0001:00035a40       sfc_api_query_script_breakpoints 0000000180036a40 f   sfc_debug:sfc_api.obj
 0001:00035aa0       sfc_api_get_script_id      0000000180036aa0 f   sfc_debug:sfc_api.obj
 0001:00035b60       sfc_api_get_active_states  0000000180036b60 f   sfc_debug:sfc_api.obj
 0001:00035be0       sfc_api_break_between_times 0000000180036be0 f   sfc_debug:sfc_api.obj
 0001:00035c40       sfc_api_get_instance_handle 0000000180036c40 f   sfc_debug:sfc_api.obj
 0001:00035cf0       sfc_api_set_animation      0000000180036cf0 f   sfc_debug:sfc_api.obj
 0001:00035d40       sfc_api_select_chart       0000000180036d40 f   sfc_debug:sfc_api.obj
 0001:00035da0       sfc_api_select_charts      0000000180036da0 f   sfc_debug:sfc_api.obj
 0001:00035dd0       sfc_api_cycle_detection_check 0000000180036dd0 f   sfc_debug:sfc_api.obj
 0001:00035e20       sfc_api_data_range_check   0000000180036e20 f   sfc_debug:sfc_api.obj
 0001:00035e70       sfc_api_transition_conflict_check 0000000180036e70 f   sfc_debug:sfc_api.obj
 0001:00035ec0       sfc_api_state_consistency_check 0000000180036ec0 f   sfc_debug:sfc_api.obj
 0001:00035f10       sfc_api_set_instance_cv_ids 0000000180036f10 f   sfc_debug:sfc_api.obj
 0001:00036020       sfc_api_set_script_cv_ids  0000000180037020 f   sfc_debug:sfc_api.obj
 0001:000360d0       sfc_api_get_current_machine_id 00000001800370d0 f   sfc_debug:sfc_api.obj
 0001:00036100       sfc_api_get_current_machine_number 0000000180037100 f   sfc_debug:sfc_api.obj
 0001:00036130       sfc_api_get_current_chart_number 0000000180037130 f   sfc_debug:sfc_api.obj
 0001:00036160       sfc_api_get_current_instance_number 0000000180037160 f   sfc_debug:sfc_api.obj
 0001:00036190       sfc_api_get_current_instance_handle 0000000180037190 f   sfc_debug:sfc_api.obj
 0001:000361b0       sfc_api_get_current_is_minor_time_step 00000001800371b0 f   sfc_debug:sfc_api.obj
 0001:000361e0       sfc_api_get_current_machine_name 00000001800371e0 f   sfc_debug:sfc_api.obj
 0001:00036200       sfc_api_get_current_chart_id 0000000180037200 f   sfc_debug:sfc_api.obj
 0001:00036230       sfc_api_get_current_object_type 0000000180037230 f   sfc_debug:sfc_api.obj
 0001:00036260       sfc_api_get_current_event_type 0000000180037260 f   sfc_debug:sfc_api.obj
 0001:00036290       sfc_api_get_current_object_id 0000000180037290 f   sfc_debug:sfc_api.obj
 0001:000362c0       sfc_get_current_active_event_type 00000001800372c0 f   sfc_debug:sfc_api.obj
 0001:000362f0       sfc_api_get_current_active_event_id 00000001800372f0 f   sfc_debug:sfc_api.obj
 0001:00036320       sfc_api_get_current_simulation_time 0000000180037320 f   sfc_debug:sfc_api.obj
 0001:00036340       sfc_get_current_tag_type   0000000180037340 f   sfc_debug:sfc_api.obj
 0001:00036370       sfc_get_current_coverage_percentage 0000000180037370 f   sfc_debug:sfc_api.obj
 0001:00036390       sfc_get_current_statement_context 0000000180037390 f   sfc_debug:sfc_api.obj
 0001:000363b0       sfc_get_current_optional_integer 00000001800373b0 f   sfc_debug:sfc_api.obj
 0001:000363e0       sfc_get_current_statement_info 00000001800373e0 f   sfc_debug:sfc_api.obj
 0001:00036480       sfc_api_get                0000000180037480 f   sfc_debug:sfc_api.obj
 0001:000370f0       sf_debug_sm_fill_state_activity_data 00000001800380f0 f   sfc_debug:sfdb_animation.obj
 0001:000399f0       void_ptr_stack_vector_free_total 000000018003a9f0 f   sfc_debug:sfdb_data_browse.obj
 0001:00039a80       sf_debug_st_terminate_machine 000000018003aa80 f   sfc_debug:sfdb_data_browse.obj
 0001:00039ac0       sf_debug_st_terminate_instance 000000018003aac0 f   sfc_debug:sfdb_data_browse.obj
 0001:00039e70       push_on_to_void_ptr_stack  000000018003ae70 f   sfc_debug:sfdb_data_browse.obj
 0001:0003a000       pop_from_void_ptr_stack    000000018003b000 f   sfc_debug:sfdb_data_browse.obj
 0001:0003a130       sf_debug_st_get_data_value 000000018003b130 f   sfc_debug:sfdb_data_browse.obj
 0001:0003a6c0       mx_value                   000000018003b6c0 f   sfc_debug:sfdb_data_browse.obj
 0001:0003a700       sf_debug_st_fill_data_struct 000000018003b700 f   sfc_debug:sfdb_data_browse.obj
 0001:0003aa40       data_type_format_strings   000000018003ba40 f   sfc_debug:sfdb_data_browse.obj
 0001:0003aaf0       sf_debug_st_fill_data      000000018003baf0 f   sfc_debug:sfdb_data_browse.obj
 0001:0003b840       sf_debug_hm_get_simulink_handle 000000018003c840 f   sfc_debug:sfdb_handle_management.obj
 0001:0003c340       sf_debug_hm_initialize_globals 000000018003d340 f   sfc_debug:sfdb_handle_management.obj
 0001:0003c440       sf_debug_hm_get_machine_debug_flag 000000018003d440 f   sfc_debug:sfdb_handle_management.obj
 0001:0003c5b0       sf_debug_hm_get_machine_id 000000018003d5b0 f   sfc_debug:sfdb_handle_management.obj
 0001:0003c6d0       sf_debug_hm_get_chart_id   000000018003d6d0 f   sfc_debug:sfdb_handle_management.obj
 0001:0003c870       sf_debug_hm_register_executing_SFunction 000000018003d870 f   sfc_debug:sfdb_handle_management.obj
 0001:0003cc00       sf_debug_hm_form_object_boolean_properties 000000018003dc00 f   sfc_debug:sfdb_handle_management.obj
 0001:0003ced0       sf_debug_hm_form_object_properties 000000018003ded0 f   sfc_debug:sfdb_handle_management.obj
 0001:0003d110       sf_debug_hm_terminate_charts 000000018003e110 f   sfc_debug:sfdb_handle_management.obj
 0001:0003d870       sf_debug_hm_terminate_machines 000000018003e870 f   sfc_debug:sfdb_handle_management.obj
 0001:0003f470       sf_debug_ss_copy_dimension 0000000180040470 f   sfc_debug:sfdb_symbol_scope.obj
 0001:0003f530       sf_debug_ss_get_number_elements 0000000180040530 f   sfc_debug:sfdb_symbol_scope.obj
 0001:0003f550       sf_debug_ss_fill_data_struct 0000000180040550 f   sfc_debug:sfdb_symbol_scope.obj
 0001:0003f8a0       sf_debug_ss_reset_data_info 00000001800408a0 f   sfc_debug:sfdb_symbol_scope.obj
 0001:0003f900       sf_debug_fill_data_info_by_symbol_scope_entry 0000000180040900 f   sfc_debug:sfdb_symbol_scope.obj
 0001:0003f9c0       sf_debug_fill_data_info_by_data_vector 00000001800409c0 f   sfc_debug:sfdb_symbol_scope.obj
 0001:0003fc10       get_data_info_helper       0000000180040c10 f   sfc_debug:sfdb_symbol_scope.obj
 0001:0003fd10       sf_debug_ss_get_data_info  0000000180040d10 f   sfc_debug:sfdb_symbol_scope.obj
 0001:0003ff40       sf_debug_select_mex_function 0000000180040f40 f   sfc_debug:sfdb_symbol_scope.obj
 0001:0003ff70       sf_debug_is_dyn_matrix_initialized 0000000180040f70 f   sfc_debug:sfdb_symbol_scope.obj
 0001:0003ff90       sf_debug_ss_set_data_value_try 0000000180040f90 f   sfc_debug:sfdb_symbol_scope.obj
 0001:00040160       sf_debug_ss_get_data_value 0000000180041160 f   sfc_debug:sfdb_symbol_scope.obj
 0001:000408d0       sf_debug_ss_data_bytes_string 00000001800418d0 f   sfc_debug:sfdb_symbol_scope.obj
 0001:00040980       sf_debug_ss_data_class_string 0000000180041980 f   sfc_debug:sfdb_symbol_scope.obj
 0001:00040d10       sf_debug_ss_data_size_string 0000000180041d10 f   sfc_debug:sfdb_symbol_scope.obj
 0001:00040df0       sf_debug_ss_data_create_data_info_struct 0000000180041df0 f   sfc_debug:sfdb_symbol_scope.obj
 0001:000410c0       sf_debug_ss_data_create_name_value_pair 00000001800420c0 f   sfc_debug:sfdb_symbol_scope.obj
 0001:00041160       sf_debug_ss_data_get_whos_info 0000000180042160 f   sfc_debug:sfdb_symbol_scope.obj
 0001:00041170       same_named_data_in_data_array 0000000180042170 f   sfc_debug:sfdb_symbol_scope.obj
 0001:00042a00       sf_debug_cc_terminate_chart 0000000180043a00 f   sfc_debug:sfdb_coverage.obj
 0001:00042da0       sf_debug_cc_terminate_instance 0000000180043da0 f   sfc_debug:sfdb_coverage.obj
 0001:00043990       sf_debug_cc_mark_object_if_needed 0000000180044990 f   sfc_debug:sfdb_coverage.obj
 0001:00044290       sf_debug_bm_initialize_eml 0000000180045290 f   sfc_debug:sfdb_breakpoints.obj
 0001:000453d0       sf_debug_bm_map_debug_tag_to_breakpoint_tag 00000001800463d0 f   sfc_debug:sfdb_breakpoints.obj
 0001:000454b0       sf_debug_bm_is_a_eml_breakpoint_impl 00000001800464b0 f   sfc_debug:sfdb_breakpoints.obj
 0001:00046ff0       sf_debug_sc_push_on_error_stack 0000000180047ff0 f   sfc_debug:sfdb_state_consistency.obj
 0001:00047120       sf_debug_sc_reset_error_stack 0000000180048120 f   sfc_debug:sfdb_state_consistency.obj
 0001:000472b0       sf_debug_sc_is_state_inconsistent 00000001800482b0 f   sfc_debug:sfdb_state_consistency.obj
 0001:000475b0       sf_debug_sc_fill_consistency_info 00000001800485b0 f   sfc_debug:sfdb_state_consistency.obj
 0001:00047b90       void_assertion_fcn         0000000180048b90 f   sfc_debug:sfdb_call_stack.obj
 0001:00048110       sf_debug_tm_fill_local_trace 0000000180049110 f   sfc_debug:sfdb_call_stack.obj
 0001:000486e0       sf_debug_cd_terminate_instance 00000001800496e0 f   sfc_debug:sfdb_cycle_detection.obj
 0001:00048740       sf_debug_cd_free_checksum_stack 0000000180049740 f   sfc_debug:sfdb_cycle_detection.obj
 0001:00048790       sf_debug_cd_reset_pack_strings 0000000180049790 f   sfc_debug:sfdb_cycle_detection.obj
 0001:00048e50       md5file_clear              0000000180049e50 f   sfc_debug:ckmd5.obj
 0001:00048e80       Encode                     0000000180049e80 f   sfc_debug:ckmd5.obj
 0001:00048ed0       Decode                     0000000180049ed0 f   sfc_debug:ckmd5.obj
 0001:00048f70       MD5Transform               0000000180049f70 f   sfc_debug:ckmd5.obj
 0001:000497c0       md5file_addn               000000018004a7c0 f   sfc_debug:ckmd5.obj
 0001:00049890       md5file_hash               000000018004a890 f   sfc_debug:ckmd5.obj
 0001:00049d78       pre_c_init                 000000018004ad78 f   MSVCRT:crtdll.obj
 0001:0004a034       __DllMainCRTStartup        000000018004b034 f   MSVCRT:crtdll.obj
 0001:0004a740       __DllMainCRTStartup$filt$0 000000018004b740 f   MSVCRT:crtdll.obj
 0001:0004a770       __DllMainCRTStartup$fin$1  000000018004b770 f   MSVCRT:crtdll.obj
 0001:0004a78a       _onexit$fin$0              000000018004b78a f   MSVCRT:atonexit.obj
 0001:0004a7b0       _IsNonwritableInCurrentImage$filt$0 000000018004b7b0 f   MSVCRT:pesect.obj
