 fuzzy_sliding_pendubot_simulate_22_5_2017_sfun

 Timestamp is 5923535a (Tue May 23 00:08:42 2017)

 Preferred load address is 0000000180000000

 Start         Length     Name                   Class
 0001:00000000 000376d4H .text                   CODE
 0001:000376e0 00000092H .text$x                 CODE
 0002:00000000 00000498H .idata$5                DATA
 0002:00000498 00000008H .CRT$XCA                DATA
 0002:000004a0 00000008H .CRT$XCZ                DATA
 0002:000004a8 00000008H .CRT$XIA                DATA
 0002:000004b0 00000008H .CRT$XIAA               DATA
 0002:000004b8 00000008H .CRT$XIZ                DATA
 0002:000004c0 00004b7cH .rdata                  DATA
 0002:00005040 00000008H .rtc$IAA                DATA
 0002:00005048 00000008H .rtc$IZZ                DATA
 0002:00005050 00000008H .rtc$TAA                DATA
 0002:00005058 00000008H .rtc$TZZ                DATA
 0002:00005060 00003f84H .xdata                  DATA
 0002:00008fe4 000000a0H .idata$2                DATA
 0002:00009084 00000014H .idata$3                DATA
 0002:00009098 00000498H .idata$4                DATA
 0002:00009530 00000aacH .idata$6                DATA
 0002:00009fe0 00000074H .edata                  DATA
 0003:00000000 00001fd8H .data                   DATA
 0003:00001fe0 000026d8H .bss                    DATA
 0004:00000000 00003060H .pdata                  DATA

  Address         Publics by Value              Rva+Base               Lib:Object

 0000:00000000       ___safe_se_handler_count   0000000000000000     <absolute>
 0000:00000000       ___safe_se_handler_table   0000000000000000     <absolute>
 0000:00000000       __ImageBase                0000000180000000     <linker-defined>
 0001:00000000       sf_c2_fuzzy_sliding_pendubot_simulate_22_5_2017_get_eml_resolved_functions_info 0000000180001000 f   c2_fuzzy_sliding_pendubot_simulate_22_5_2017.obj
 0001:00000bf0       sf_c2_fuzzy_sliding_pendubot_simulate_22_5_2017_get_check_sum 0000000180001bf0 f   c2_fuzzy_sliding_pendubot_simulate_22_5_2017.obj
 0001:00000c70       sf_c2_fuzzy_sliding_pendubot_simulate_22_5_2017_get_autoinheritance_info 0000000180001c70 f   c2_fuzzy_sliding_pendubot_simulate_22_5_2017.obj
 0001:000016f0       sf_internal_get_sim_state_c2_fuzzy_sliding_pendubot_simulate_22_5_2017 00000001800026f0 f   c2_fuzzy_sliding_pendubot_simulate_22_5_2017.obj
 0001:00001b00       sf_internal_set_sim_state_c2_fuzzy_sliding_pendubot_simulate_22_5_2017 0000000180002b00 f   c2_fuzzy_sliding_pendubot_simulate_22_5_2017.obj
 0001:00001f40       c2_fuzzy_sliding_pendubot_simulate_22_5_2017_method_dispatcher 0000000180002f40 f   c2_fuzzy_sliding_pendubot_simulate_22_5_2017.obj
 0001:000050f0       sf_process_check_sum_call  00000001800060f0 f   fuzzy_sliding_pendubot_simulate_22_5_2017_sfun_registry.obj
 0001:00005140       sf_process_autoinheritance_call 0000000180006140 f   fuzzy_sliding_pendubot_simulate_22_5_2017_sfun_registry.obj
 0001:000052e0       sf_process_get_eml_resolved_functions_info_call 00000001800062e0 f   fuzzy_sliding_pendubot_simulate_22_5_2017_sfun_registry.obj
 0001:00005460       sf_mex_unlock_call         0000000180006460 f   fuzzy_sliding_pendubot_simulate_22_5_2017_sfun_registry.obj
 0001:00005510       sf_machine_global_initializer_called 0000000180006510 f   fuzzy_sliding_pendubot_simulate_22_5_2017_sfun_registry.obj
 0001:00005540       sf_machine_global_method_dispatcher 0000000180006540 f   fuzzy_sliding_pendubot_simulate_22_5_2017_sfun_registry.obj
 0001:000055a0       sf_machine_global_terminator 00000001800065a0 f   fuzzy_sliding_pendubot_simulate_22_5_2017_sfun_registry.obj
 0001:000055e0       sf_register_machine_exported_symbols 00000001800065e0 f   fuzzy_sliding_pendubot_simulate_22_5_2017_sfun_registry.obj
 0001:00005600       callCustomFcn              0000000180006600 f   fuzzy_sliding_pendubot_simulate_22_5_2017_sfun_registry.obj
 0001:00005610       sf_machine_global_initializer 0000000180006610 f   fuzzy_sliding_pendubot_simulate_22_5_2017_sfun_registry.obj
 0001:00005680       _ssSetStateAbsTol          0000000180006680 f   fuzzy_sliding_pendubot_simulate_22_5_2017_sfun_registry.obj
 0001:00005760       _ssGetAbsTol               0000000180006760 f   fuzzy_sliding_pendubot_simulate_22_5_2017_sfun_registry.obj
 0001:000057d0       _ssSetInputPortMatrixDimensions 00000001800067d0 f   fuzzy_sliding_pendubot_simulate_22_5_2017_sfun_registry.obj
 0001:000058e0       _ssSetOutputPortMatrixDimensions 00000001800068e0 f   fuzzy_sliding_pendubot_simulate_22_5_2017_sfun_registry.obj
 0001:000059f0       _ssSetInputPortVectorDimension 00000001800069f0 f   fuzzy_sliding_pendubot_simulate_22_5_2017_sfun_registry.obj
 0001:00005ac0       _ssSetOutputPortVectorDimension 0000000180006ac0 f   fuzzy_sliding_pendubot_simulate_22_5_2017_sfun_registry.obj
 0001:00005b90       ssIsRunTimeParamTunable    0000000180006b90 f   fuzzy_sliding_pendubot_simulate_22_5_2017_sfun_registry.obj
 0001:00005c00       ssGetSFuncBlockHandle      0000000180006c00 f   fuzzy_sliding_pendubot_simulate_22_5_2017_sfun_registry.obj
 0001:00005c70       _ssGetCurrentInputPortWidth 0000000180006c70 f   fuzzy_sliding_pendubot_simulate_22_5_2017_sfun_registry.obj
 0001:00005d90       _ssGetCurrentOutputPortWidth 0000000180006d90 f   fuzzy_sliding_pendubot_simulate_22_5_2017_sfun_registry.obj
 0001:00005eb0       _ssGetCallSystemNumFcnCallDestinations 0000000180006eb0 f   fuzzy_sliding_pendubot_simulate_22_5_2017_sfun_registry.obj
 0001:00005f20       ssWarning                  0000000180006f20 f   fuzzy_sliding_pendubot_simulate_22_5_2017_sfun_registry.obj
 0001:00006030       ssGetIsZeroCrossControlDisabled 0000000180007030 f   fuzzy_sliding_pendubot_simulate_22_5_2017_sfun_registry.obj
 0001:000060a0       ssSetIsInputPortUsedForContZcSignal 00000001800070a0 f   fuzzy_sliding_pendubot_simulate_22_5_2017_sfun_registry.obj
 0001:00006110       ssSetZcSignalIsZcElementDisc 0000000180007110 f   fuzzy_sliding_pendubot_simulate_22_5_2017_sfun_registry.obj
 0001:000061c0       ssSetZcSignalName          00000001800071c0 f   fuzzy_sliding_pendubot_simulate_22_5_2017_sfun_registry.obj
 0001:00006230       ssSetZcSignalWidth         0000000180007230 f   fuzzy_sliding_pendubot_simulate_22_5_2017_sfun_registry.obj
 0001:000062a0       ssSetZcSignalZcEventType   00000001800072a0 f   fuzzy_sliding_pendubot_simulate_22_5_2017_sfun_registry.obj
 0001:00006310       ssSetZcSignalType          0000000180007310 f   fuzzy_sliding_pendubot_simulate_22_5_2017_sfun_registry.obj
 0001:00006380       ssSetZcSignalZcTol         0000000180007380 f   fuzzy_sliding_pendubot_simulate_22_5_2017_sfun_registry.obj
 0001:000063f0       ssSetZcSignalNeedsEventNotification 00000001800073f0 f   fuzzy_sliding_pendubot_simulate_22_5_2017_sfun_registry.obj
 0001:00006460       ssCreateAndAddZcSignalInfo 0000000180007460 f   fuzzy_sliding_pendubot_simulate_22_5_2017_sfun_registry.obj
 0001:000064d0       ssCloneAndAddZcSignalInfo  00000001800074d0 f   fuzzy_sliding_pendubot_simulate_22_5_2017_sfun_registry.obj
 0001:00006540       ssGetNumZcSignals          0000000180007540 f   fuzzy_sliding_pendubot_simulate_22_5_2017_sfun_registry.obj
 0001:000065b0       ssGetZcSignalVector        00000001800075b0 f   fuzzy_sliding_pendubot_simulate_22_5_2017_sfun_registry.obj
 0001:00006620       ssGetZcSignalZcEvents      0000000180007620 f   fuzzy_sliding_pendubot_simulate_22_5_2017_sfun_registry.obj
 0001:00006690       ssGetZcSignalName          0000000180007690 f   fuzzy_sliding_pendubot_simulate_22_5_2017_sfun_registry.obj
 0001:00006700       ssGetZcSignalWidth         0000000180007700 f   fuzzy_sliding_pendubot_simulate_22_5_2017_sfun_registry.obj
 0001:00006770       ssGetZcSignalZcEventType   0000000180007770 f   fuzzy_sliding_pendubot_simulate_22_5_2017_sfun_registry.obj
 0001:000067e0       ssGetZcSignalType          00000001800077e0 f   fuzzy_sliding_pendubot_simulate_22_5_2017_sfun_registry.obj
 0001:00006850       ssGetZcSignalZcTol         0000000180007850 f   fuzzy_sliding_pendubot_simulate_22_5_2017_sfun_registry.obj
 0001:000068d0       ssGetZcSignalNeedsEventNotification 00000001800078d0 f   fuzzy_sliding_pendubot_simulate_22_5_2017_sfun_registry.obj
 0001:00006940       ssGetZcSignalIsZcElementDisc 0000000180007940 f   fuzzy_sliding_pendubot_simulate_22_5_2017_sfun_registry.obj
 0001:000069e0       ssGetIsInputPortElementContinuous 00000001800079e0 f   fuzzy_sliding_pendubot_simulate_22_5_2017_sfun_registry.obj
 0001:00006a80       _ssGetInputPortSignalPtrsFcn 0000000180007a80 f   fuzzy_sliding_pendubot_simulate_22_5_2017_sfun_registry.obj
 0001:00006d40       _ssGetInputPortSignalFcn   0000000180007d40 f   fuzzy_sliding_pendubot_simulate_22_5_2017_sfun_registry.obj
 0001:00006f60       _ssSetInputPortDirectFeedThroughFcn 0000000180007f60 f   fuzzy_sliding_pendubot_simulate_22_5_2017_sfun_registry.obj
 0001:000070c0       _ssSetInputPortReusableFcn 00000001800080c0 f   fuzzy_sliding_pendubot_simulate_22_5_2017_sfun_registry.obj
 0001:000071b0       _ssSetOutputPortReusableFcn 00000001800081b0 f   fuzzy_sliding_pendubot_simulate_22_5_2017_sfun_registry.obj
 0001:00007290       ssGetDTypeIdFromMxArray    0000000180008290 f   fuzzy_sliding_pendubot_simulate_22_5_2017_sfun_registry.obj
 0001:000073b0       ssWriteRTWStr              00000001800083b0 f   fuzzy_sliding_pendubot_simulate_22_5_2017_sfun_registry.obj
 0001:00007410       ssWriteRTWMxVectParam      0000000180008410 f   fuzzy_sliding_pendubot_simulate_22_5_2017_sfun_registry.obj
 0001:00007470       ssWriteRTWMx2dMatParam     0000000180008470 f   fuzzy_sliding_pendubot_simulate_22_5_2017_sfun_registry.obj
 0001:000074f0       ssWriteRTWNameValuePair    00000001800084f0 f   fuzzy_sliding_pendubot_simulate_22_5_2017_sfun_registry.obj
 0001:000079e0       ssWriteRTWParameters       00000001800089e0 f   fuzzy_sliding_pendubot_simulate_22_5_2017_sfun_registry.obj
 0001:00007fe0       ssWriteRTWParamSettings    0000000180008fe0 f   fuzzy_sliding_pendubot_simulate_22_5_2017_sfun_registry.obj
 0001:000086b0       ssWriteRTWWorkVect         00000001800096b0 f   fuzzy_sliding_pendubot_simulate_22_5_2017_sfun_registry.obj
 0001:00008bb0       mexFunction                0000000180009bb0 f   fuzzy_sliding_pendubot_simulate_22_5_2017_sfun_registry.obj
 0001:0000a870       ProcessMexSfunctionEveryCall 000000018000b870 f   fuzzy_sliding_pendubot_simulate_22_5_2017_sfun_registry.obj
 0001:0000a9e0       fuzzy_sliding_pendubot_simulate_22_5_2017_initializer 000000018000b9e0 f   fuzzy_sliding_pendubot_simulate_22_5_2017_sfun.obj
 0001:0000a9f0       fuzzy_sliding_pendubot_simulate_22_5_2017_terminator 000000018000b9f0 f   fuzzy_sliding_pendubot_simulate_22_5_2017_sfun.obj
 0001:0000aa00       sf_fuzzy_sliding_pendubot_simulate_22_5_2017_method_dispatcher 000000018000ba00 f   fuzzy_sliding_pendubot_simulate_22_5_2017_sfun.obj
 0001:0000aa50       sf_fuzzy_sliding_pendubot_simulate_22_5_2017_process_check_sum_call 000000018000ba50 f   fuzzy_sliding_pendubot_simulate_22_5_2017_sfun.obj
 0001:0000ae60       sf_fuzzy_sliding_pendubot_simulate_22_5_2017_autoinheritance_info 000000018000be60 f   fuzzy_sliding_pendubot_simulate_22_5_2017_sfun.obj
 0001:0000afd0       sf_fuzzy_sliding_pendubot_simulate_22_5_2017_get_eml_resolved_functions_info 000000018000bfd0 f   fuzzy_sliding_pendubot_simulate_22_5_2017_sfun.obj
 0001:0000b100       fuzzy_sliding_pendubot_simulate_22_5_2017_debug_initialize 000000018000c100 f   fuzzy_sliding_pendubot_simulate_22_5_2017_sfun.obj
 0001:0000b170       fuzzy_sliding_pendubot_simulate_22_5_2017_register_exported_symbols 000000018000c170 f   fuzzy_sliding_pendubot_simulate_22_5_2017_sfun.obj
 0001:0000b180       load_fuzzy_sliding_pendubot_simulate_22_5_2017_optimization_info 000000018000c180 f   fuzzy_sliding_pendubot_simulate_22_5_2017_sfun.obj
 0001:0000b1d0       unload_fuzzy_sliding_pendubot_simulate_22_5_2017_optimization_info 000000018000c1d0 f   fuzzy_sliding_pendubot_simulate_22_5_2017_sfun.obj
 0001:0000b2f0       sf_mex_mx_is_numeric       000000018000c2f0 f   sfc_mex:sfc_mex.obj
 0001:0000b330       strcmp_ignore_ws           000000018000c330 f   sfc_mex:sfc_mex.obj
 0001:0000b470       sf_mex_duplicatearraysafe  000000018000c470 f   sfc_mex:sfc_mex.obj
 0001:0000b5d0       sf_set_error_debugger_context_message_fcn 000000018000c5d0 f   sfc_mex:sfc_mex.obj
 0001:0000b5e0       sf_set_debugger_matlab_error_fcn 000000018000c5e0 f   sfc_mex:sfc_mex.obj
 0001:0000b610       sf_set_error_prefix_string 000000018000c610 f   sfc_mex:sfc_mex.obj
 0001:0000b640       sf_get_error_prefix_string 000000018000c640 f   sfc_mex:sfc_mex.obj
 0001:0000b650       sf_mex_enter_parallel_region 000000018000c650 f   sfc_mex:sfc_mex.obj
 0001:0000b660       sf_mex_exit_parallel_region 000000018000c660 f   sfc_mex:sfc_mex.obj
 0001:0000b670       sf_get_current_jmp_buf_ptr 000000018000c670 f   sfc_mex:sfc_mex.obj
 0001:0000b680       sf_set_current_jmp_buf_ptr 000000018000c680 f   sfc_mex:sfc_mex.obj
 0001:0000b690       sf_mex_set_halt_simulation 000000018000c690 f   sfc_mex:sfc_mex.obj
 0001:0000b6a0       sf_mex_get_halt_simulation 000000018000c6a0 f   sfc_mex:sfc_mex.obj
 0001:0000b6b0       sf_mex_clear_error_message 000000018000c6b0 f   sfc_mex:sfc_mex.obj
 0001:0000b6d0       sf_mex_get_error_message_for_read 000000018000c6d0 f   sfc_mex:sfc_mex.obj
 0001:0000b6e0       sf_mex_get_error_message_buffer_length 000000018000c6e0 f   sfc_mex:sfc_mex.obj
 0001:0000b7c0       sf_mex_warning_message     000000018000c7c0 f   sfc_mex:sfc_mex.obj
 0001:0000b830       sf_mex_v_errbuf_createf    000000018000c830 f   sfc_mex:sfc_mex.obj
 0001:0000b840       sf_mex_errbuf_createf      000000018000c840 f   sfc_mex:sfc_mex.obj
 0001:0000b870       sf_mex_v_errbuf_catf       000000018000c870 f   sfc_mex:sfc_mex.obj
 0001:0000b8b0       sf_mex_errbuf_catf         000000018000c8b0 f   sfc_mex:sfc_mex.obj
 0001:0000b900       sf_mex_errbuf_copy         000000018000c900 f   sfc_mex:sfc_mex.obj
 0001:0000b910       sf_mex_errbuf_clear        000000018000c910 f   sfc_mex:sfc_mex.obj
 0001:0000b920       sf_mex_errbuf_isempty      000000018000c920 f   sfc_mex:sfc_mex.obj
 0001:0000ba30       sf_mex_set_error_status    000000018000ca30 f   sfc_mex:sfc_mex.obj
 0001:0000ba80       sf_mex_error_direct_call   000000018000ca80 f   sfc_mex:sfc_mex.obj
 0001:0000baa0       sf_mex_error_message_no_long_jump 000000018000caa0 f   sfc_mex:sfc_mex.obj
 0001:0000bac0       sf_mex_long_jump_on_error  000000018000cac0 f   sfc_mex:sfc_mex.obj
 0001:0000baf0       sf_mex_call_matlab         000000018000caf0 f   sfc_mex:sfc_mex.obj
 0001:0000bc10       sf_mex_check_builtin       000000018000cc10 f   sfc_mex:sfc_mex.obj
 0001:0000bcb0       sf_mex_check_builtin_vs    000000018000ccb0 f   sfc_mex:sfc_mex.obj
 0001:0000bd70       sf_mex_check_enum          000000018000cd70 f   sfc_mex:sfc_mex.obj
 0001:0000bdf0       sf_mex_create_enum         000000018000cdf0 f   sfc_mex:sfc_mex.obj
 0001:0000be60       sf_mex_get_enum_element    000000018000ce60 f   sfc_mex:sfc_mex.obj
 0001:0000be70       sf_mex_createcellarray     000000018000ce70 f   sfc_mex:sfc_mex.obj
 0001:0000be80       sf_mex_setcell             000000018000ce80 f   sfc_mex:sfc_mex.obj
 0001:0000be90       sf_mex_getcell             000000018000ce90 f   sfc_mex:sfc_mex.obj
 0001:0000bea0       sf_mex_dup                 000000018000cea0 f   sfc_mex:sfc_mex.obj
 0001:0000bec0       sf_mex_assign              000000018000cec0 f   sfc_mex:sfc_mex.obj
 0001:0000bf40       sf_mex_destroy             000000018000cf40 f   sfc_mex:sfc_mex.obj
 0001:0000bf70       mx_array_has_fi_type       000000018000cf70 f   sfc_mex:sfc_mex.obj
 0001:0000bfa0       sf_mex_convert_from_fi     000000018000cfa0 f   sfc_mex:sfc_mex.obj
 0001:0000c0d0       sf_mex_convert_to_double   000000018000d0d0 f   sfc_mex:sfc_mex.obj
 0001:0000c1f0       sf_mex_import_fi_vs        000000018000d1f0 f   sfc_mex:sfc_mex.obj
 0001:0000c3b0       sf_matrix_matrix_index_ok  000000018000d3b0 f   sfc_mex:sfc_mex.obj
 0001:0000c440       sf_vector_vector_index_ok  000000018000d440 f   sfc_mex:sfc_mex.obj
 0001:0000c470       ssGetCurrentInputPortDimensions_wrapper 000000018000d470 f   sfc_mex:sfc_mex.obj
 0001:0000c490       ssGetCurrentOutputPortDimensions_wrapper 000000018000d490 f   sfc_mex:sfc_mex.obj
 0001:0000c4b0       sf_mex_emlrt_context_is_debug_mode 000000018000d4b0 f   sfc_mex:sfc_mex.obj
 0001:0000c4c0       sf_mex_emlrt_context_set_debug_mode 000000018000d4c0 f   sfc_mex:sfc_mex.obj
 0001:0000c4d0       sf_mex_emlrtNameCapturePostProcessR2012a 000000018000d4d0 f   sfc_mex:sfc_mex.obj
 0001:0000c540       sf_clear_error_manager_info 000000018000d540 f   sfc_mex:sfc_mex.obj
 0001:0000c5a0       sf_mex_stop_simulation_abruptly_wo_error 000000018000d5a0 f   sfc_mex:sfc_mex.obj
 0001:0000c5e0       sf_mex_error_message       000000018000d5e0 f   sfc_mex:sfc_mex.obj
 0001:0000c640       sf_react_to_error_in_matlab_call 000000018000d640 f   sfc_mex:sfc_mex.obj
 0001:0000c670       sf_mex_addfield            000000018000d670 f   sfc_mex:sfc_mex.obj
 0001:0000c710       sf_mex_getfield            000000018000d710 f   sfc_mex:sfc_mex.obj
 0001:0000ca10       sf_mex_check_class         000000018000da10 f   sfc_mex:sfc_mex.obj
 0001:0000cab0       sf_mex_is_real             000000018000dab0 f   sfc_mex:sfc_mex.obj
 0001:0000cf20       sf_mex_decode_encoded_mx_struct_array 000000018000df20 f   sfc_mex:sfc_mex.obj
 0001:0000d200       sf_mex_lw_bounds_check     000000018000e200 f   sfc_mex:sfc_mex.obj
 0001:0000d230       sf_mex_lw_size_eq_check_1d 000000018000e230 f   sfc_mex:sfc_mex.obj
 0001:0000d250       sf_mex_lw_size_eq_check_nd 000000018000e250 f   sfc_mex:sfc_mex.obj
 0001:0000d430       sf_mex_lw_dim_size_eq_check 000000018000e430 f   sfc_mex:sfc_mex.obj
 0001:0000d460       sf_mex_lw_dim_size_geq_check 000000018000e460 f   sfc_mex:sfc_mex.obj
 0001:0000d490       sf_mex_lw_sub_assign_size_check_nd 000000018000e490 f   sfc_mex:sfc_mex.obj
 0001:0000d6c0       sf_mex_lw_runtime_error_msgid 000000018000e6c0 f   sfc_mex:sfc_mex.obj
 0001:0000d7b0       sf_mex_lw_matrix_matrix_index_check 000000018000e7b0 f   sfc_mex:sfc_mex.obj
 0001:0000d7d0       sf_mex_lw_vector_vector_index_check 000000018000e7d0 f   sfc_mex:sfc_mex.obj
 0001:0000d810       sf_mex_lw_for_loop_vector_check 000000018000e810 f   sfc_mex:sfc_mex.obj
 0001:0000d8a0       sf_mex_lw_non_negative_check 000000018000e8a0 f   sfc_mex:sfc_mex.obj
 0001:0000d8e0       sf_mex_overflow_error      000000018000e8e0 f   sfc_mex:sfc_mex.obj
 0001:0000d8f0       sf_mex_dividebyzero_error  000000018000e8f0 f   sfc_mex:sfc_mex.obj
 0001:0000d900       sf_mex_unsafe_enum_error   000000018000e900 f   sfc_mex:sfc_mex.obj
 0001:0000d910       sf_emlrtErrHandler         000000018000e910 f   sfc_mex:sfc_mex.obj
 0001:0000d9f0       sf_mex_size_one_check      000000018000e9f0 f   sfc_mex:sfc_mex.obj
 0001:0000da10       sf_mex_printf              000000018000ea10 f   sfc_mex:sfc_mex.obj
 0001:0000dbe0       sf_mex_check_size          000000018000ebe0 f   sfc_mex:sfc_mex.obj
 0001:0000deb0       sf_mex_check_struct        000000018000eeb0 f   sfc_mex:sfc_mex.obj
 0001:0000e110       sf_mex_check_struct_vs     000000018000f110 f   sfc_mex:sfc_mex.obj
 0001:0000e1a0       sf_mex_check_fi            000000018000f1a0 f   sfc_mex:sfc_mex.obj
 0001:0000e2a0       sf_mex_check_fi_vs         000000018000f2a0 f   sfc_mex:sfc_mex.obj
 0001:0000e340       sf_echo_expression         000000018000f340 f   sfc_mex:sfc_mex.obj
 0001:0000e3a0       sf_assertion_failed        000000018000f3a0 f   sfc_mex:sfc_mex.obj
 0001:0000e680       sf_mex_evalin              000000018000f680 f   sfc_mex:sfc_mex.obj
 0001:0000e8f0       sf_mex_export              000000018000f8f0 f   sfc_mex:sfc_mex.obj
 0001:0000e9b0       sf_mex_get_ml_var_no_error 000000018000f9b0 f   sfc_mex:sfc_mex.obj
 0001:0000eb50       sf_mex_get_ml_var          000000018000fb50 f   sfc_mex:sfc_mex.obj
 0001:0000eff0       ml_set_element_value_in_array 000000018000fff0 f   sfc_mex:sfc_mex.obj
 0001:000106c0       sf_mex_call_impl           00000001800116c0 f   sfc_mex:sfc_mex.obj
 0001:00010bf0       sf_mex_call_debug          0000000180011bf0 f   sfc_mex:sfc_mex.obj
 0001:00010c20       sf_mex_call                0000000180011c20 f   sfc_mex:sfc_mex.obj
 0001:00011270       sf_mex_createstruct        0000000180012270 f   sfc_mex:sfc_mex.obj
 0001:00011360       sf_mex_createstructarray   0000000180012360 f   sfc_mex:sfc_mex.obj
 0001:000113e0       sf_mex_get_mx_datatype_from_sf_datatype 00000001800123e0 f   sfc_mex:sfc_mex.obj
 0001:000116f0       sf_mex_ml_var_sub          00000001800126f0 f   sfc_mex:sfc_mex.obj
 0001:000118c0       sf_mex_ml_var_subsasgn     00000001800128c0 f   sfc_mex:sfc_mex.obj
 0001:00011cb0       sf_mex_sub                 0000000180012cb0 f   sfc_mex:sfc_mex.obj
 0001:00011eb0       sf_mex_subsasgn            0000000180012eb0 f   sfc_mex:sfc_mex.obj
 0001:00012390       sf_mex_create              0000000180013390 f   sfc_mex:sfc_mex.obj
 0001:00012de0       sf_mex_import_named        0000000180013de0 f   sfc_mex:sfc_mex.obj
 0001:00012e40       sf_mex_import              0000000180013e40 f   sfc_mex:sfc_mex.obj
 0001:00012e90       sf_mex_import_vs           0000000180013e90 f   sfc_mex:sfc_mex.obj
 0001:00012fa0       sf_mex_lower_fixpt_mx_array 0000000180013fa0 f   sfc_mex:sfc_mex.obj
 0001:00013290       sf_send_message_wrapper    0000000180014290 f   sfc_mex:sfc_sf.obj
 0001:000132c0       sf_receive_message_wrapper 00000001800142c0 f   sfc_mex:sfc_sf.obj
 0001:00013300       sf_check_out_message_wrapper 0000000180014300 f   sfc_mex:sfc_sf.obj
 0001:00013340       sf_check_in_message_wrapper 0000000180014340 f   sfc_mex:sfc_sf.obj
 0001:00013380       sf_no_message_wrapper      0000000180014380 f   sfc_mex:sfc_sf.obj
 0001:00013710       sim_mode_is_rtw_gen        0000000180014710 f   sfc_mex:sfc_sf.obj
 0001:00013740       sim_mode_is_external       0000000180014740 f   sfc_mex:sfc_sf.obj
 0001:00013750       sim_mode_is_modelref_sim   0000000180014750 f   sfc_mex:sfc_sf.obj
 0001:00013770       mdlInitializeSizes         0000000180014770 f   sfc_mex:sfc_sf.obj
 0001:00013790       mdlInitializeSampleTimes   0000000180014790 f   sfc_mex:sfc_sf.obj
 0001:000137d0       mdlZeroCrossings           00000001800147d0 f   sfc_mex:sfc_sf.obj
 0001:000138b0       mdlDerivatives             00000001800148b0 f   sfc_mex:sfc_sf.obj
 0001:00013960       mdl_initialize_conditions_processing 0000000180014960 f   sfc_mex:sfc_sf.obj
 0001:00013990       mdlInitializeConditions    0000000180014990 f   sfc_mex:sfc_sf.obj
 0001:00013a50       mdlGetSimState             0000000180014a50 f   sfc_mex:sfc_sf.obj
 0001:00013a60       mdlSetSimState             0000000180014a60 f   sfc_mex:sfc_sf.obj
 0001:00013a70       mdl_ext_mode_exec_processing 0000000180014a70 f   sfc_mex:sfc_sf.obj
 0001:00013a90       mdlExtModeExec             0000000180014a90 f   sfc_mex:sfc_sf.obj
 0001:00013c20       mdlTerminate               0000000180014c20 f   sfc_mex:sfc_sf.obj
 0001:00013c90       mdlRTW                     0000000180014c90 f   sfc_mex:sfc_sf.obj
 0001:00013cc0       mdlSetWorkWidths           0000000180014cc0 f   sfc_mex:sfc_sf.obj
 0001:00013cd0       mdlProcessParameters       0000000180014cd0 f   sfc_mex:sfc_sf.obj
 0001:00013ce0       mdl_start_processing       0000000180014ce0 f   sfc_mex:sfc_sf.obj
 0001:00013d40       mdlStart                   0000000180014d40 f   sfc_mex:sfc_sf.obj
 0001:00013e50       mdlEnable                  0000000180014e50 f   sfc_mex:sfc_sf.obj
 0001:00013f20       mdlDisable                 0000000180014f20 f   sfc_mex:sfc_sf.obj
 0001:00013fd0       sf_get_chart_instance_ptr  0000000180014fd0 f   sfc_mex:sfc_sf.obj
 0001:00013ff0       sf_load_rtw_optimization_info 0000000180014ff0 f   sfc_mex:sfc_sf.obj
 0001:000140c0       sf_rtw_info_uint_prop      00000001800150c0 f   sfc_mex:sfc_sf.obj
 0001:00014200       sf_is_chart_inlinable      0000000180015200 f   sfc_mex:sfc_sf.obj
 0001:00014220       sf_mark_output_events_with_multiple_callers 0000000180015220 f   sfc_mex:sfc_sf.obj
 0001:000143b0       sf_mark_chart_reusable_outputs 00000001800153b0 f   sfc_mex:sfc_sf.obj
 0001:00014610       sf_mark_chart_expressionable_inputs 0000000180015610 f   sfc_mex:sfc_sf.obj
 0001:00014870       sf_get_subchart_simstruct  0000000180015870 f   sfc_mex:sfc_sf.obj
 0001:000148c0       sf_get_fixpt_data_type_id  00000001800158c0 f   sfc_mex:sfc_sf.obj
 0001:00014900       sf_get_enum_data_type_id   0000000180015900 f   sfc_mex:sfc_sf.obj
 0001:00014940       sf_get_param_data_type_id  0000000180015940 f   sfc_mex:sfc_sf.obj
 0001:00014970       sf_mex_listen_for_ctrl_c_force 0000000180015970 f   sfc_mex:sfc_sf.obj
 0001:00014a80       sf_mex_draw_now            0000000180015a80 f   sfc_mex:sfc_sf.obj
 0001:00014ac0       sf_mex_set_debugger_sim_status_listener_fcn 0000000180015ac0 f   sfc_mex:sfc_sf.obj
 0001:00014ad0       sf_mex_listen_for_ctrl_c   0000000180015ad0 f   sfc_mex:sfc_sf.obj
 0001:00014b60       sf_mex_get_sfun_param      0000000180015b60 f   sfc_mex:sfc_sf.obj
 0001:00014bb0       sf_get_runtime_param_data  0000000180015bb0 f   sfc_mex:sfc_sf.obj
 0001:00014bf0       sf_call_output_fcn_call    0000000180015bf0 f   sfc_mex:sfc_sf.obj
 0001:00014d30       sf_call_output_fcn_enable  0000000180015d30 f   sfc_mex:sfc_sf.obj
 0001:00014dc0       sf_call_output_fcn_disable 0000000180015dc0 f   sfc_mex:sfc_sf.obj
 0001:00014e50       sf_clear_rtw_identifier    0000000180015e50 f   sfc_mex:sfc_sf.obj
 0001:00015640       sf_set_encoded_dwork_info  0000000180016640 f   sfc_mex:sfc_sf.obj
 0001:00015690       sf_get_dwork_info_from_mat_file 0000000180016690 f   sfc_mex:sfc_sf.obj
 0001:00015850       sf_set_rtw_dwork_info      0000000180016850 f   sfc_mex:sfc_sf.obj
 0001:000159c0       mdlOutputs                 00000001800169c0 f   sfc_mex:sfc_sf.obj
 0001:00015b60       sf_debug_disp              0000000180016b60 f   sfc_debug:sfcdebug.obj
 0001:00015dc0       sf_debug_data_runtime_size_mismatch_error_check 0000000180016dc0 f   sfc_debug:sfcdebug.obj
 0001:00015e60       sf_debug_try_loading_machine 0000000180016e60 f   sfc_debug:sfcdebug.obj
 0001:00015f60       sf_debug_reset_current_state_configuration 0000000180016f60 f   sfc_debug:sfcdebug.obj
 0001:00015ff0       sf_debug_store_current_state_configuration 0000000180016ff0 f   sfc_debug:sfcdebug.obj
 0001:00016080       sf_debug_restore_previous_state_configuration 0000000180017080 f   sfc_debug:sfcdebug.obj
 0001:00016110       sf_debug_restore_previous_state_configuration2 0000000180017110 f   sfc_debug:sfcdebug.obj
 0001:000161a0       sf_debug_get_event_scope   00000001800171a0 f   sfc_debug:sfcdebug.obj
 0001:00016310       use_debugger_step_animation 0000000180017310 f   sfc_debug:sfcdebug.obj
 0001:00016330       sf_debug_get_script_id     0000000180017330 f   sfc_debug:sfcdebug.obj
 0001:000163c0       sf_debug_set_script_translation 00000001800173c0 f   sfc_debug:sfcdebug.obj
 0001:00016540       sf_debug_extract_message_post_receive_info 0000000180017540 f   sfc_debug:sfcdebug.obj
 0001:00016640       sf_debug_get_current_machine_id 0000000180017640 f   sfc_debug:sfcdebug.obj
 0001:00016660       sf_debug_get_current_optional_integer 0000000180017660 f   sfc_debug:sfcdebug.obj
 0001:00016670       sf_debug_get_current_machine_number 0000000180017670 f   sfc_debug:sfcdebug.obj
 0001:00016690       sf_debug_get_current_machine_name 0000000180017690 f   sfc_debug:sfcdebug.obj
 0001:000166b0       sf_debug_get_current_chart_id 00000001800176b0 f   sfc_debug:sfcdebug.obj
 0001:00016700       sf_debug_get_current_chart_number 0000000180017700 f   sfc_debug:sfcdebug.obj
 0001:00016710       sf_debug_get_current_instance_number 0000000180017710 f   sfc_debug:sfcdebug.obj
 0001:00016720       sf_debug_get_current_is_minor_time_step 0000000180017720 f   sfc_debug:sfcdebug.obj
 0001:000167a0       sf_debug_get_current_object_type 00000001800177a0 f   sfc_debug:sfcdebug.obj
 0001:000167b0       sf_debug_get_current_instance_handle 00000001800177b0 f   sfc_debug:sfcdebug.obj
 0001:00016810       sf_debug_get_current_event_type 0000000180017810 f   sfc_debug:sfcdebug.obj
 0001:00016820       sf_debug_get_current_object_id 0000000180017820 f   sfc_debug:sfcdebug.obj
 0001:00016860       sf_debug_get_current_active_event_type 0000000180017860 f   sfc_debug:sfcdebug.obj
 0001:00016870       sf_debug_get_current_active_event_id 0000000180017870 f   sfc_debug:sfcdebug.obj
 0001:000168b0       sf_debug_get_current_tag_type 00000001800178b0 f   sfc_debug:sfcdebug.obj
 0001:000168c0       sf_debug_get_current_simulation_time 00000001800178c0 f   sfc_debug:sfcdebug.obj
 0001:000168d0       sf_debug_get_current_coverage_percentage 00000001800178d0 f   sfc_debug:sfcdebug.obj
 0001:000168e0       sf_debug_current_statement_context 00000001800178e0 f   sfc_debug:sfcdebug.obj
 0001:00016970       sf_debug_get_current_statement_info 0000000180017970 f   sfc_debug:sfcdebug.obj
 0001:00016af0       sf_debug_terminate_instance 0000000180017af0 f   sfc_debug:sfcdebug.obj
 0001:00016e30       sf_debug_assertion_failed  0000000180017e30 f   sfc_debug:sfcdebug.obj
 0001:00017090       sf_debug_set_number_of_data_with_change_event_for_machine 0000000180018090 f   sfc_debug:sfcdebug.obj
 0001:000170d0       sf_debug_set_machine_event_thresholds 00000001800180d0 f   sfc_debug:sfcdebug.obj
 0001:000170f0       sf_debug_set_machine_event_scope 00000001800180f0 f   sfc_debug:sfcdebug.obj
 0001:00017130       sf_debug_set_machine_data_thresholds 0000000180018130 f   sfc_debug:sfcdebug.obj
 0001:00017170       sf_debug_set_machine_data_scope 0000000180018170 f   sfc_debug:sfcdebug.obj
 0001:00017200       sf_debug_set_machine_data_name 0000000180018200 f   sfc_debug:sfcdebug.obj
 0001:000172a0       sf_debug_set_machine_data_size 00000001800182a0 f   sfc_debug:sfcdebug.obj
 0001:000173e0       sf_debug_set_machine_data_type 00000001800183e0 f   sfc_debug:sfcdebug.obj
 0001:00017550       sf_debug_get_chart_data_number 0000000180018550 f   sfc_debug:sfcdebug.obj
 0001:00017570       sf_debug_get_chart_event_number 0000000180018570 f   sfc_debug:sfcdebug.obj
 0001:00017590       sf_debug_set_chart_state_info 0000000180018590 f   sfc_debug:sfcdebug.obj
 0001:00017610       sf_debug_set_chart_decomposition 0000000180018610 f   sfc_debug:sfcdebug.obj
 0001:00017680       sf_debug_set_chart_substate_count 0000000180018680 f   sfc_debug:sfcdebug.obj
 0001:00017760       sf_debug_set_chart_substate_index 0000000180018760 f   sfc_debug:sfcdebug.obj
 0001:000177d0       sf_debug_set_chart_state_substate_count 00000001800187d0 f   sfc_debug:sfcdebug.obj
 0001:000178e0       sf_debug_set_chart_state_substate_index 00000001800188e0 f   sfc_debug:sfcdebug.obj
 0001:00017960       sf_debug_set_number_of_data_with_change_event_for_chart 0000000180018960 f   sfc_debug:sfcdebug.obj
 0001:000179e0       sf_debug_set_number_of_states_with_entry_event_for_chart 00000001800189e0 f   sfc_debug:sfcdebug.obj
 0001:00017a50       sf_debug_set_number_of_states_with_exit_event_for_chart 0000000180018a50 f   sfc_debug:sfcdebug.obj
 0001:00017ac0       sf_debug_set_chart_disable_implicit_casting 0000000180018ac0 f   sfc_debug:sfcdebug.obj
 0001:00017b30       sf_debug_set_chart_event_thresholds 0000000180018b30 f   sfc_debug:sfcdebug.obj
 0001:00017ba0       sf_debug_set_chart_data_compiled_props 0000000180018ba0 f   sfc_debug:sfcdebug.obj
 0001:00017ef0       sf_debug_set_chart_data_props 0000000180018ef0 f   sfc_debug:sfcdebug.obj
 0001:00018210       sf_debug_check_fi_license  0000000180019210 f   sfc_debug:sfcdebug.obj
 0001:00018400       sf_debug_symbol_scope_push 0000000180019400 f   sfc_debug:sfcdebug.obj
 0001:00018440       sf_debug_symbol_scope_push_eml 0000000180019440 f   sfc_debug:sfcdebug.obj
 0001:00018490       sf_debug_symbol_scope_pop  0000000180019490 f   sfc_debug:sfcdebug.obj
 0001:000184d0       sf_debug_symbol_scope_add_importable 00000001800194d0 f   sfc_debug:sfcdebug.obj
 0001:00018550       sf_debug_symbol_scope_add  0000000180019550 f   sfc_debug:sfcdebug.obj
 0001:000185d0       sf_debug_symbol_scope_add_dyn_importable 00000001800195d0 f   sfc_debug:sfcdebug.obj
 0001:00018690       sf_debug_symbol_scope_add_dyn 0000000180019690 f   sfc_debug:sfcdebug.obj
 0001:000186c0       sf_debug_symbol_scope_add_eml_importable 00000001800196c0 f   sfc_debug:sfcdebug.obj
 0001:00018700       sf_debug_symbol_scope_add_eml 0000000180019700 f   sfc_debug:sfcdebug.obj
 0001:00018740       sf_debug_symbol_scope_add_eml_dyn_importable 0000000180019740 f   sfc_debug:sfcdebug.obj
 0001:000187b0       sf_debug_symbol_scope_add_eml_dyn 00000001800197b0 f   sfc_debug:sfcdebug.obj
 0001:00018810       sf_debug_symbol_switch     0000000180019810 f   sfc_debug:sfcdebug.obj
 0001:00018830       sf_debug_symbol_scope_add_verbose 0000000180019830 f   sfc_debug:sfcdebug.obj
 0001:00018900       sf_debug_set_machine_data_value_ptr 0000000180019900 f   sfc_debug:sfcdebug.obj
 0001:00018940       sf_debug_set_instance_data_value_ptr 0000000180019940 f   sfc_debug:sfcdebug.obj
 0001:00018a00       sf_debug_unset_instance_data_value_ptr 0000000180019a00 f   sfc_debug:sfcdebug.obj
 0001:00018ab0       sf_debug_set_chart_event_scope 0000000180019ab0 f   sfc_debug:sfcdebug.obj
 0001:00018b30       sf_debug_set_chart_transition_coverage_maps 0000000180019b30 f   sfc_debug:sfcdebug.obj
 0001:00018c40       sf_debug_set_chart_state_coverage_maps 0000000180019c40 f   sfc_debug:sfcdebug.obj
 0001:00018d20       sf_debug_set_instance_transition_coverage_weights 0000000180019d20 f   sfc_debug:sfcdebug.obj
 0001:00018dc0       sf_debug_set_instance_state_coverage_weights 0000000180019dc0 f   sfc_debug:sfcdebug.obj
 0001:00019010       sf_debug_unload_machine    000000018001a010 f   sfc_debug:sfcdebug.obj
 0001:00019060       sf_debug_load_machine      000000018001a060 f   sfc_debug:sfcdebug.obj
 0001:00019160       sf_debug_set_active_instance_in_data_dictionary 000000018001a160 f   sfc_debug:sfcdebug.obj
 0001:00019340       sf_debug_set_active_instance 000000018001a340 f   sfc_debug:sfcdebug.obj
 0001:000194a0       sf_debug_chart_visiblity_change 000000018001a4a0 f   sfc_debug:sfcdebug.obj
 0001:000195a0       sf_debug_select_chart      000000018001a5a0 f   sfc_debug:sfcdebug.obj
 0001:00019710       sf_debug_set_instance_cv_ids 000000018001a710 f   sfc_debug:sfcdebug.obj
 0001:00019a20       sf_debug_select_charts     000000018001aa20 f   sfc_debug:sfcdebug.obj
 0001:00019bb0       sf_debug_initialized       000000018001abb0 f   sfc_debug:sfcdebug.obj
 0001:00019bc0       sf_debug_is_uninterruptible 000000018001abc0 f   sfc_debug:sfcdebug.obj
 0001:00019bf0       sf_debug_initialize_debugger_gui 000000018001abf0 f   sfc_debug:sfcdebug.obj
 0001:00019fe0       sf_debug_resume            000000018001afe0 f   sfc_debug:sfcdebug.obj
 0001:0001a000       sf_debug_go                000000018001b000 f   sfc_debug:sfcdebug.obj
 0001:0001a010       sf_debug_break             000000018001b010 f   sfc_debug:sfcdebug.obj
 0001:0001a020       sf_debug_step_over         000000018001b020 f   sfc_debug:sfcdebug.obj
 0001:0001a030       sf_debug_step_out          000000018001b030 f   sfc_debug:sfcdebug.obj
 0001:0001a040       sf_debug_set_disable_all_breakpoints 000000018001b040 f   sfc_debug:sfcdebug.obj
 0001:0001a050       sf_debug_disable_all_breakpoints_and_go 000000018001b050 f   sfc_debug:sfcdebug.obj
 0001:0001a060       sf_debug_break_on_chart_entry 000000018001b060 f   sfc_debug:sfcdebug.obj
 0001:0001a070       sf_debug_break_on_event_broadcast 000000018001b070 f   sfc_debug:sfcdebug.obj
 0001:0001a080       sf_debug_break_on_state_entry 000000018001b080 f   sfc_debug:sfcdebug.obj
 0001:0001a090       sf_debug_break_between_times 000000018001b090 f   sfc_debug:sfcdebug.obj
 0001:0001a0b0       sf_debug_browse_data       000000018001b0b0 f   sfc_debug:sfcdebug.obj
 0001:0001a0d0       sf_debug_watch_data        000000018001b0d0 f   sfc_debug:sfcdebug.obj
 0001:0001a0f0       sf_debug_assign_data       000000018001b0f0 f   sfc_debug:sfcdebug.obj
 0001:0001a110       sf_debug_whos              000000018001b110 f   sfc_debug:sfcdebug.obj
 0001:0001a130       sf_debug_get_consistency_info 000000018001b130 f   sfc_debug:sfcdebug.obj
 0001:0001a140       sf_debug_browse_trace      000000018001b140 f   sfc_debug:sfcdebug.obj
 0001:0001a150       sf_debug_set_breakpoints   000000018001b150 f   sfc_debug:sfcdebug.obj
 0001:0001a2b0       sf_debug_set_eml_breakpoints 000000018001b2b0 f   sfc_debug:sfcdebug.obj
 0001:0001a410       sf_debug_set_script_breakpoints 000000018001b410 f   sfc_debug:sfcdebug.obj
 0001:0001a490       sf_debug_add_script_breakpoints 000000018001b490 f   sfc_debug:sfcdebug.obj
 0001:0001a500       sf_debug_clear_script_breakpoints 000000018001b500 f   sfc_debug:sfcdebug.obj
 0001:0001a570       sf_debug_query_script_breakpoints 000000018001b570 f   sfc_debug:sfcdebug.obj
 0001:0001a630       sf_debug_get_eml_script_id 000000018001b630 f   sfc_debug:sfcdebug.obj
 0001:0001a680       sf_debug_set_watch         000000018001b680 f   sfc_debug:sfcdebug.obj
 0001:0001a8b0       sf_debug_get_instance_handle 000000018001b8b0 f   sfc_debug:sfcdebug.obj
 0001:0001a940       sf_debug_get_active_states 000000018001b940 f   sfc_debug:sfcdebug.obj
 0001:0001a950       sf_debug_get_animation     000000018001b950 f   sfc_debug:sfcdebug.obj
 0001:0001a960       sf_debug_set_animation     000000018001b960 f   sfc_debug:sfcdebug.obj
 0001:0001a970       sf_debug_animate           000000018001b970 f   sfc_debug:sfcdebug.obj
 0001:0001a9a0       sf_debug_cycle_detection_check 000000018001b9a0 f   sfc_debug:sfcdebug.obj
 0001:0001a9b0       sf_debug_data_range_check  000000018001b9b0 f   sfc_debug:sfcdebug.obj
 0001:0001a9c0       sf_debug_transition_conflict_check 000000018001b9c0 f   sfc_debug:sfcdebug.obj
 0001:0001a9d0       sf_debug_state_consistency_check 000000018001b9d0 f   sfc_debug:sfcdebug.obj
 0001:0001a9e0       sf_debug_data_range_check_enabled 000000018001b9e0 f   sfc_debug:sfcdebug.obj
 0001:0001aa00       sf_debug_transition_conflict_check_enabled 000000018001ba00 f   sfc_debug:sfcdebug.obj
 0001:0001aa20       sf_debug_transition_conflict_check_begin 000000018001ba20 f   sfc_debug:sfcdebug.obj
 0001:0001aa40       sf_debug_transition_conflict_check_end 000000018001ba40 f   sfc_debug:sfcdebug.obj
 0001:0001aa60       sf_debug_stop_debugging    000000018001ba60 f   sfc_debug:sfcdebug.obj
 0001:0001aa90       sf_debug_is_cycle_detected 000000018001ba90 f   sfc_debug:sfcdebug.obj
 0001:0001aaa0       sf_debug_is_array_bounds_detected 000000018001baa0 f   sfc_debug:sfcdebug.obj
 0001:0001aab0       sf_debug_get_state_vectors_data_size 000000018001bab0 f   sfc_debug:sfcdebug.obj
 0001:0001aaf0       sf_debug_get_state_vectors_data 000000018001baf0 f   sfc_debug:sfcdebug.obj
 0001:0001abf0       sf_debug_set_state_vectors_data 000000018001bbf0 f   sfc_debug:sfcdebug.obj
 0001:0001aeb0       sf_debug_get_script_index  000000018001beb0 f   sfc_debug:sfcdebug.obj
 0001:0001b040       sf_debug_add_script        000000018001c040 f   sfc_debug:sfcdebug.obj
 0001:0001b1d0       cv_eval_point              000000018001c1d0 f   sfc_debug:sfcdebug.obj
 0001:0001b340       cv_eval_testobjective      000000018001c340 f   sfc_debug:sfcdebug.obj
 0001:0001b460       sf_debug_cv_init_state     000000018001c460 f   sfc_debug:sfcdebug.obj
 0001:0001b580       sf_debug_cv_init_chart     000000018001c580 f   sfc_debug:sfcdebug.obj
 0001:0001b660       sf_debug_cv_init_trans     000000018001c660 f   sfc_debug:sfcdebug.obj
 0001:0001b760       sf_debug_cv_init_testobjectives 000000018001c760 f   sfc_debug:sfcdebug.obj
 0001:0001b940       cv_eml_init_script         000000018001c940 f   sfc_debug:sfcdebug.obj
 0001:0001ba50       cv_eml_init_fcn            000000018001ca50 f   sfc_debug:sfcdebug.obj
 0001:0001bb00       cv_eml_init_testobjective  000000018001cb00 f   sfc_debug:sfcdebug.obj
 0001:0001bbd0       cv_eml_init_saturation     000000018001cbd0 f   sfc_debug:sfcdebug.obj
 0001:0001bc90       cv_eml_init_if             000000018001cc90 f   sfc_debug:sfcdebug.obj
 0001:0001bd60       cv_eml_init_for            000000018001cd60 f   sfc_debug:sfcdebug.obj
 0001:0001be20       cv_eml_init_while          000000018001ce20 f   sfc_debug:sfcdebug.obj
 0001:0001bee0       cv_eml_init_mcdc           000000018001cee0 f   sfc_debug:sfcdebug.obj
 0001:0001bff0       cv_eml_init_switch         000000018001cff0 f   sfc_debug:sfcdebug.obj
 0001:0001c0e0       cv_eml_eval                000000018001d0e0 f   sfc_debug:sfcdebug.obj
 0001:0001c1c0       sf_debug_bm_is_a_eml_breakpoint 000000018001d1c0 f   sfc_debug:sfcdebug.obj
 0001:0001c310       sf_debug_temporal_threshold 000000018001d310 f   sfc_debug:sfcdebug.obj
 0001:0001c670       sf_debug_transition_conflict_error 000000018001d670 f   sfc_debug:sfcdebug.obj
 0001:0001c9f0       sf_debug_state_inconsistency_error 000000018001d9f0 f   sfc_debug:sfcdebug.obj
 0001:0001cb10       sf_debug_check_for_state_inconsistency 000000018001db10 f   sfc_debug:sfcdebug.obj
 0001:0001cb40       sf_debug_cycle_detecton_error 000000018001db40 f   sfc_debug:sfcdebug.obj
 0001:0001d310       sf_debug_size_eq_check_1d  000000018001e310 f   sfc_debug:sfcdebug.obj
 0001:0001d330       sf_debug_size_eq_check_nd  000000018001e330 f   sfc_debug:sfcdebug.obj
 0001:0001d510       sf_debug_dim_size_eq_check 000000018001e510 f   sfc_debug:sfcdebug.obj
 0001:0001d540       sf_debug_dim_size_geq_check 000000018001e540 f   sfc_debug:sfcdebug.obj
 0001:0001d570       sf_debug_sub_assign_size_check_nd 000000018001e570 f   sfc_debug:sfcdebug.obj
 0001:0001d7b0       sf_debug_matrix_matrix_index_check 000000018001e7b0 f   sfc_debug:sfcdebug.obj
 0001:0001d7e0       sf_debug_vector_vector_index_check 000000018001e7e0 f   sfc_debug:sfcdebug.obj
 0001:0001d810       sf_debug_for_loop_vector_check 000000018001e810 f   sfc_debug:sfcdebug.obj
 0001:0001d8a0       sf_debug_runtime_error_msgid 000000018001e8a0 f   sfc_debug:sfcdebug.obj
 0001:0001d930       sf_debug_data_array_bounds_error_check 000000018001e930 f   sfc_debug:sfcdebug.obj
 0001:0001da40       sf_debug_eml_data_array_bounds_error_check 000000018001ea40 f   sfc_debug:sfcdebug.obj
 0001:0001df20       sf_debug_integer_check     000000018001ef20 f   sfc_debug:sfcdebug.obj
 0001:0001e000       sf_debug_not_nan_check     000000018001f000 f   sfc_debug:sfcdebug.obj
 0001:0001e0c0       sf_debug_non_negative_check 000000018001f0c0 f   sfc_debug:sfcdebug.obj
 0001:0001e180       sf_debug_overflow_detection 000000018001f180 f   sfc_debug:sfcdebug.obj
 0001:0001e870       sf_debug_cast_to_real32_T  000000018001f870 f   sfc_debug:sfcdebug.obj
 0001:0001e930       sf_debug_cast_to_int8_T    000000018001f930 f   sfc_debug:sfcdebug.obj
 0001:0001e9f0       sf_debug_cast_to_uint8_T   000000018001f9f0 f   sfc_debug:sfcdebug.obj
 0001:0001eab0       sf_debug_cast_to_int16_T   000000018001fab0 f   sfc_debug:sfcdebug.obj
 0001:0001eb70       sf_debug_cast_to_uint16_T  000000018001fb70 f   sfc_debug:sfcdebug.obj
 0001:0001ec30       sf_debug_cast_to_int32_T   000000018001fc30 f   sfc_debug:sfcdebug.obj
 0001:0001ecf0       sf_debug_cast_to_uint32_T  000000018001fcf0 f   sfc_debug:sfcdebug.obj
 0001:0001edb0       sf_debug_data_range_error  000000018001fdb0 f   sfc_debug:sfcdebug.obj
 0001:0001f100       sf_debug_read_before_write_check 0000000180020100 f   sfc_debug:sfcdebug.obj
 0001:0001f560       sf_debug_data_range_error_wrapper_min_max 0000000180020560 f   sfc_debug:sfcdebug.obj
 0001:0001f650       sf_debug_data_range_error_wrapper_min 0000000180020650 f   sfc_debug:sfcdebug.obj
 0001:0001f730       sf_debug_data_range_error_wrapper_max 0000000180020730 f   sfc_debug:sfcdebug.obj
 0001:0001f810       sf_debug_data_range_wrapper 0000000180020810 f   sfc_debug:sfcdebug.obj
 0001:0001f8c0       sf_debug_set_current_status_info 00000001800208c0 f   sfc_debug:sfcdebug.obj
 0001:0001fc70       sf_debug_register_message_post_receive_info 0000000180020c70 f   sfc_debug:sfcdebug.obj
 0001:0001fee0       sf_debug_call              0000000180020ee0 f   sfc_debug:sfcdebug.obj
 0001:00020b40       sf_debug_initialize_machine 0000000180021b40 f   sfc_debug:sfcdebug.obj
 0001:00020e50       sf_debug_initialize_chart  0000000180021e50 f   sfc_debug:sfcdebug.obj
 0001:000212a0       sf_debug_ensure_script     00000001800222a0 f   sfc_debug:sfcdebug.obj
 0001:00021360       cv_script_init_script      0000000180022360 f   sfc_debug:sfcdebug.obj
 0001:00021450       cv_script_init_fcn         0000000180022450 f   sfc_debug:sfcdebug.obj
 0001:00021500       cv_script_init_testobjective 0000000180022500 f   sfc_debug:sfcdebug.obj
 0001:000215b0       cv_script_init_if          00000001800225b0 f   sfc_debug:sfcdebug.obj
 0001:00021660       cv_script_init_for         0000000180022660 f   sfc_debug:sfcdebug.obj
 0001:00021710       cv_script_init_while       0000000180022710 f   sfc_debug:sfcdebug.obj
 0001:000217c0       cv_script_init_mcdc        00000001800227c0 f   sfc_debug:sfcdebug.obj
 0001:000218c0       cv_script_init_switch      00000001800228c0 f   sfc_debug:sfcdebug.obj
 0001:000219a0       cv_script_eval             00000001800229a0 f   sfc_debug:sfcdebug.obj
 0001:00021a80       eml_debug_line_call        0000000180022a80 f   sfc_debug:sfcdebug.obj
 0001:00021c30       sf_debug_terminate         0000000180022c30 f   sfc_debug:sfcdebug.obj
 0001:00021da0       sf_debug_set_script_cv_ids 0000000180022da0 f   sfc_debug:sfcdebug.obj
 0001:00021ed0       sf_debug_api               0000000180022ed0 f   sfc_debug:sfc_api.obj
 0001:00023580       sf_debug_sm_terminate      0000000180024580 f   sfc_debug:sfdb_animation.obj
 0001:00023740       sf_debug_reset_path_objects 0000000180024740 f   sfc_debug:sfdb_animation.obj
 0001:000237c0       sf_debug_sm_reset_object_selection_status 00000001800247c0 f   sfc_debug:sfdb_animation.obj
 0001:00023860       sf_debug_sm_reset_state_buffer 0000000180024860 f   sfc_debug:sfdb_animation.obj
 0001:00023930       sf_debug_sm_store_state_buffer 0000000180024930 f   sfc_debug:sfdb_animation.obj
 0001:000239b0       sf_debug_sm_restore_state_buffer1 00000001800249b0 f   sfc_debug:sfdb_animation.obj
 0001:00023a20       sf_debug_sm_restore_state_buffer2 0000000180024a20 f   sfc_debug:sfdb_animation.obj
 0001:00023a90       sf_debug_sm_chart_active   0000000180024a90 f   sfc_debug:sfdb_animation.obj
 0001:00023ae0       sf_debug_sm_select_active_objects 0000000180024ae0 f   sfc_debug:sfdb_animation.obj
 0001:00023fd0       sf_debug_sm_is_chart_active 0000000180024fd0 f   sfc_debug:sfdb_animation.obj
 0001:00024010       sf_debug_sm_is_state_active 0000000180025010 f   sfc_debug:sfdb_animation.obj
 0001:00024250       sf_debug_sm_get_active_states 0000000180025250 f   sfc_debug:sfdb_animation.obj
 0001:00024810       sf_debug_sm_initialize_instance 0000000180025810 f   sfc_debug:sfdb_animation.obj
 0001:00024a30       sf_debug_sm_change_object_selection_status 0000000180025a30 f   sfc_debug:sfdb_animation.obj
 0001:00024d40       cv_create_interface        0000000180025d40 f   sfc_debug:cv_sfinterface.obj
 0001:000250a0       cv_init_trans              00000001800260a0 f   sfc_debug:cv_sfinterface.obj
 0001:000250f0       cv_init_testobjective      00000001800260f0 f   sfc_debug:cv_sfinterface.obj
 0001:00025130       cv_init_state              0000000180026130 f   sfc_debug:cv_sfinterface.obj
 0001:000251a0       cv_init_chart              00000001800261a0 f   sfc_debug:cv_sfinterface.obj
 0001:000251f0       cv_dec_update_call         00000001800261f0 f   sfc_debug:cv_sfinterface.obj
 0001:00025230       cv_cond_update_call        0000000180026230 f   sfc_debug:cv_sfinterface.obj
 0001:00025270       cv_testobjective_update_call 0000000180026270 f   sfc_debug:cv_sfinterface.obj
 0001:000252b0       cv_sigrange_update         00000001800262b0 f   sfc_debug:cv_sfinterface.obj
 0001:000252f0       cvsf_eml_eval              00000001800262f0 f   sfc_debug:cv_sfinterface.obj
 0001:000253e0       cvsf_eml_init_script       00000001800263e0 f   sfc_debug:cv_sfinterface.obj
 0001:00025470       cvsf_eml_init_fcn          0000000180026470 f   sfc_debug:cv_sfinterface.obj
 0001:000254d0       cvsf_eml_init_testobjective 00000001800264d0 f   sfc_debug:cv_sfinterface.obj
 0001:00025530       cvsf_eml_init_saturation   0000000180026530 f   sfc_debug:cv_sfinterface.obj
 0001:00025580       cvsf_eml_init_if           0000000180026580 f   sfc_debug:cv_sfinterface.obj
 0001:000255e0       cvsf_eml_init_for          00000001800265e0 f   sfc_debug:cv_sfinterface.obj
 0001:00025630       cvsf_eml_init_while        0000000180026630 f   sfc_debug:cv_sfinterface.obj
 0001:00025680       cvsf_eml_init_mcdc         0000000180026680 f   sfc_debug:cv_sfinterface.obj
 0001:00025710       cvsf_eml_init_switch       0000000180026710 f   sfc_debug:cv_sfinterface.obj
 0001:00025780       cvsf_script_eval           0000000180026780 f   sfc_debug:cv_sfinterface.obj
 0001:00025870       cvsf_script_init_script    0000000180026870 f   sfc_debug:cv_sfinterface.obj
 0001:00025900       cvsf_script_init_fcn       0000000180026900 f   sfc_debug:cv_sfinterface.obj
 0001:00025960       cvsf_script_init_testobjective 0000000180026960 f   sfc_debug:cv_sfinterface.obj
 0001:000259c0       cvsf_script_init_saturation 00000001800269c0 f   sfc_debug:cv_sfinterface.obj
 0001:00025a10       cvsf_script_init_if        0000000180026a10 f   sfc_debug:cv_sfinterface.obj
 0001:00025a70       cvsf_script_init_for       0000000180026a70 f   sfc_debug:cv_sfinterface.obj
 0001:00025ac0       cvsf_script_init_while     0000000180026ac0 f   sfc_debug:cv_sfinterface.obj
 0001:00025b10       cvsf_script_init_mcdc      0000000180026b10 f   sfc_debug:cv_sfinterface.obj
 0001:00025ba0       cvsf_script_init_switch    0000000180026ba0 f   sfc_debug:cv_sfinterface.obj
 0001:00025c10       cv_destroy_interface       0000000180026c10 f   sfc_debug:cv_sfinterface.obj
 0001:00025c30       cv_create_instance_objects 0000000180026c30 f   sfc_debug:cv_sfinterface.obj
 0001:000260e0       cv_is_enabled              00000001800270e0 f   sfc_debug:cv_sfinterface.obj
 0001:000260f0       sf_debug_cv_initialize_script 00000001800270f0 f   sfc_debug:cv_sfinterface.obj
 0001:000262a0       sf_debug_cv_initialize_instance 00000001800272a0 f   sfc_debug:cv_sfinterface.obj
 0001:00026640       sf_debug_cv_terminate_chart 0000000180027640 f   sfc_debug:cv_sfinterface.obj
 0001:00026780       cv_call_trans_test         0000000180027780 f   sfc_debug:cv_sfinterface.obj
 0001:00026790       cv_call_sub_cond_test      0000000180027790 f   sfc_debug:cv_sfinterface.obj
 0001:000267d0       sf_debug_st_initialize_machine 00000001800277d0 f   sfc_debug:sfdb_data_browse.obj
 0001:00026890       sf_debug_st_initialize_instance 0000000180027890 f   sfc_debug:sfdb_data_browse.obj
 0001:00026ac0       sf_debug_st_terminate      0000000180027ac0 f   sfc_debug:sfdb_data_browse.obj
 0001:00026e60       sf_debug_st_set_data_value_ptr_in_machine 0000000180027e60 f   sfc_debug:sfdb_data_browse.obj
 0001:00026ef0       sf_debug_st_set_data_value_ptr_in_instance 0000000180027ef0 f   sfc_debug:sfdb_data_browse.obj
 0001:00026fd0       sf_debug_st_unset_data_value_ptr_in_machine 0000000180027fd0 f   sfc_debug:sfdb_data_browse.obj
 0001:00027040       sf_debug_st_unset_data_value_ptr_in_instance 0000000180028040 f   sfc_debug:sfdb_data_browse.obj
 0001:00027350       sf_debug_mx_value          0000000180028350 f   sfc_debug:sfdb_data_browse.obj
 0001:000273b0       sf_debug_mx_packed_vector  00000001800283b0 f   sfc_debug:sfdb_data_browse.obj
 0001:00027490       sf_debug_mx_uint_vector    0000000180028490 f   sfc_debug:sfdb_data_browse.obj
 0001:00027550       sf_debug_st_get_double_value_from_void_ptr_vector 0000000180028550 f   sfc_debug:sfdb_data_browse.obj
 0001:00028040       sf_debug_st_browse_data    0000000180029040 f   sfc_debug:sfdb_data_browse.obj
 0001:000288d0       sf_debug_hm_initialize_instance 00000001800298d0 f   sfc_debug:sfdb_handle_management.obj
 0001:00028e00       sf_debug_hm_get_object_id  0000000180029e00 f   sfc_debug:sfdb_handle_management.obj
 0001:000299b0       sf_debug_hm_update_chart_visibility 000000018002a9b0 f   sfc_debug:sfdb_handle_management.obj
 0001:0002ac90       sf_debug_object_is_eml_function 000000018002bc90 f   sfc_debug:sfdb_handle_management.obj
 0001:0002ad00       sf_debug_hm_initialize_ids_in_machine 000000018002bd00 f   sfc_debug:sfdb_handle_management.obj
 0001:0002ae70       sf_debug_hm_initialize_ids_in_chart 000000018002be70 f   sfc_debug:sfdb_handle_management.obj
 0001:0002af70       sf_debug_hm_initialize_chart 000000018002bf70 f   sfc_debug:sfdb_handle_management.obj
 0001:0002b710       sf_debug_hm_terminate      000000018002c710 f   sfc_debug:sfdb_handle_management.obj
 0001:0002b770       sf_debug_hm_initialize_machine 000000018002c770 f   sfc_debug:sfdb_handle_management.obj
 0001:0002bf20       sf_debug_ss_initialize     000000018002cf20 f   sfc_debug:sfdb_symbol_scope.obj
 0001:0002bf40       sf_debug_ss_terminate      000000018002cf40 f   sfc_debug:sfdb_symbol_scope.obj
 0001:0002bfd0       sf_debug_ss_push_symbol_scope 000000018002cfd0 f   sfc_debug:sfdb_symbol_scope.obj
 0001:0002c0d0       sf_debug_ss_push_symbol_scope_eml 000000018002d0d0 f   sfc_debug:sfdb_symbol_scope.obj
 0001:0002c130       sf_debug_ss_pop_symbol_scope 000000018002d130 f   sfc_debug:sfdb_symbol_scope.obj
 0001:0002c1e0       sf_debug_ss_add_symbol     000000018002d1e0 f   sfc_debug:sfdb_symbol_scope.obj
 0001:0002c340       sf_debug_ss_add_symbol_eml 000000018002d340 f   sfc_debug:sfdb_symbol_scope.obj
 0001:0002d060       sf_debug_ss_set_data_value 000000018002e060 f   sfc_debug:sfdb_symbol_scope.obj
 0001:0002d530       getInstanceNumber          000000018002e530 f   sfc_debug:sfdb_symbol_scope.obj
 0001:0002d600       sf_debug_ss_watch_data     000000018002e600 f   sfc_debug:sfdb_symbol_scope.obj
 0001:0002d7a0       sf_debug_ss_assign_data    000000018002e7a0 f   sfc_debug:sfdb_symbol_scope.obj
 0001:0002e1c0       get_data_entry_name        000000018002f1c0 f   sfc_debug:sfdb_symbol_scope.obj
 0001:0002e210       sf_debug_ss_whos           000000018002f210 f   sfc_debug:sfdb_symbol_scope.obj
 0001:0002e930       sf_debug_cc_initialize_chart 000000018002f930 f   sfc_debug:sfdb_coverage.obj
 0001:0002f320       sf_debug_cc_initialize_instance 0000000180030320 f   sfc_debug:sfdb_coverage.obj
 0001:00030130       sf_debug_cc_terminate      0000000180031130 f   sfc_debug:sfdb_coverage.obj
 0001:00030220       sf_debug_cc_set_transition_maps 0000000180031220 f   sfc_debug:sfdb_coverage.obj
 0001:00030350       sf_debug_cc_set_state_maps 0000000180031350 f   sfc_debug:sfdb_coverage.obj
 0001:00030430       sf_debug_cc_set_transition_weights 0000000180031430 f   sfc_debug:sfdb_coverage.obj
 0001:00030700       sf_debug_cc_set_state_weights 0000000180031700 f   sfc_debug:sfdb_coverage.obj
 0001:000309d0       sf_debug_cc_mark_transition_guard 00000001800319d0 f   sfc_debug:sfdb_coverage.obj
 0001:00030a60       sf_debug_cc_mark_transition_trigger 0000000180031a60 f   sfc_debug:sfdb_coverage.obj
 0001:00030af0       sf_debug_cc_mark_transition_decision 0000000180031af0 f   sfc_debug:sfdb_coverage.obj
 0001:00030b60       sf_debug_cc_mark_transition_condition_action 0000000180031b60 f   sfc_debug:sfdb_coverage.obj
 0001:00030bb0       sf_debug_cc_mark_transition_transition_action 0000000180031bb0 f   sfc_debug:sfdb_coverage.obj
 0001:00030c00       sf_debug_cc_mark_state_entry 0000000180031c00 f   sfc_debug:sfdb_coverage.obj
 0001:00030c50       sf_debug_cc_mark_state_during 0000000180031c50 f   sfc_debug:sfdb_coverage.obj
 0001:00030ca0       sf_debug_cc_mark_state_exit 0000000180031ca0 f   sfc_debug:sfdb_coverage.obj
 0001:00030cf0       sf_debug_bm_clear_script_breakpoints 0000000180031cf0 f   sfc_debug:sfdb_breakpoints.obj
 0001:00030d20       sf_debug_bm_set_script_breakpoint 0000000180031d20 f   sfc_debug:sfdb_breakpoints.obj
 0001:00030da0       sf_debug_bm_clear_single_script_breakpoint 0000000180031da0 f   sfc_debug:sfdb_breakpoints.obj
 0001:00030e20       sf_debug_bm_query_script_breakpoint 0000000180031e20 f   sfc_debug:sfdb_breakpoints.obj
 0001:00030e70       sf_debug_bm_initialize_scripts 0000000180031e70 f   sfc_debug:sfdb_breakpoints.obj
 0001:00031590       sf_debug_bm_terminate      0000000180032590 f   sfc_debug:sfdb_breakpoints.obj
 0001:00031880       sf_debug_bm_remove_all_breakpoints_in_machine 0000000180032880 f   sfc_debug:sfdb_breakpoints.obj
 0001:000318f0       sf_debug_bm_remove_all_breakpoints_in_chart 00000001800328f0 f   sfc_debug:sfdb_breakpoints.obj
 0001:00031a40       sf_debug_bm_initialize_global_breakpoints 0000000180032a40 f   sfc_debug:sfdb_breakpoints.obj
 0001:00031bc0       sf_debug_bm_set_breakpoint 0000000180032bc0 f   sfc_debug:sfdb_breakpoints.obj
 0001:000321c0       sf_debug_bm_set_eml_breakpoint 00000001800331c0 f   sfc_debug:sfdb_breakpoints.obj
 0001:00032260       sf_debug_bm_initialize_machine_breakpoint_map 0000000180033260 f   sfc_debug:sfdb_breakpoints.obj
 0001:00032680       sf_debug_bm_is_a_breakpoint 0000000180033680 f   sfc_debug:sfdb_breakpoints.obj
 0001:00032c60       sf_debug_bm_get_all_breakpoints_in_machine 0000000180033c60 f   sfc_debug:sfdb_breakpoints.obj
 0001:00032f60       sf_debug_bm_get_all_breakpoints_in_chart 0000000180033f60 f   sfc_debug:sfdb_breakpoints.obj
 0001:00033c20       sf_debug_bm_initialize_machine 0000000180034c20 f   sfc_debug:sfdb_breakpoints.obj
 0001:00033cf0       sf_debug_bm_initialize_chart 0000000180034cf0 f   sfc_debug:sfdb_breakpoints.obj
 0001:00034110       sf_debug_sc_terminate      0000000180035110 f   sfc_debug:sfdb_state_consistency.obj
 0001:00034440       sf_debug_sc_is_chart_consistent 0000000180035440 f   sfc_debug:sfdb_state_consistency.obj
 0001:000346f0       sf_debug_sc_get_consistency_error_info 00000001800356f0 f   sfc_debug:sfdb_state_consistency.obj
 0001:00034b40       sf_debug_tm_terminate      0000000180035b40 f   sfc_debug:sfdb_call_stack.obj
 0001:00034c00       sf_debug_tm_push_chart_instance 0000000180035c00 f   sfc_debug:sfdb_call_stack.obj
 0001:00034d50       sf_debug_tm_pop_chart_instance 0000000180035d50 f   sfc_debug:sfdb_call_stack.obj
 0001:00034db0       sf_debug_tm_push_trace_node 0000000180035db0 f   sfc_debug:sfdb_call_stack.obj
 0001:00034f40       sf_debug_tm_pop_trace_node 0000000180035f40 f   sfc_debug:sfdb_call_stack.obj
 0001:00034fc0       sf_debug_tm_get_current_global_trace_index 0000000180035fc0 f   sfc_debug:sfdb_call_stack.obj
 0001:00034fd0       sf_debug_tm_get_current_local_trace_index 0000000180035fd0 f   sfc_debug:sfdb_call_stack.obj
 0001:00035000       sf_debug_tm_set_cycle_detected_flag 0000000180036000 f   sfc_debug:sfdb_call_stack.obj
 0001:00035040       sf_debug_tm_set_cycle_started_flag 0000000180036040 f   sfc_debug:sfdb_call_stack.obj
 0001:00035080       sf_debug_tm_get_chart_number_from_stack 0000000180036080 f   sfc_debug:sfdb_call_stack.obj
 0001:00035280       sf_debug_tm_browse_trace   0000000180036280 f   sfc_debug:sfdb_call_stack.obj
 0001:000355c0       sf_debug_cd_initialize_instance 00000001800365c0 f   sfc_debug:sfdb_cycle_detection.obj
 0001:00035870       sf_debug_cd_mark_processed_transition_in_instance 0000000180036870 f   sfc_debug:sfdb_cycle_detection.obj
 0001:00035910       sf_debug_cd_checksum_push  0000000180036910 f   sfc_debug:sfdb_cycle_detection.obj
 0001:00035bd0       sf_debug_cd_checksum_pop   0000000180036bd0 f   sfc_debug:sfdb_cycle_detection.obj
 0001:00035c40       sf_debug_cd_turn_off_cycle_detection 0000000180036c40 f   sfc_debug:sfdb_cycle_detection.obj
 0001:00035c90       sf_debug_cd_terminate      0000000180036c90 f   sfc_debug:sfdb_cycle_detection.obj
 0001:00035ed0       md5_initialize_state       0000000180036ed0 f   sfc_debug:ckmd5.obj
 0001:00036940       md5_update_state           0000000180037940 f   sfc_debug:ckmd5.obj
 0001:00036960       md5_get_hash               0000000180037960 f   sfc_debug:ckmd5.obj
 0001:00036990       md5_get_hash_for_a_single_string 0000000180037990 f   sfc_debug:ckmd5.obj
 0001:000369f4       mxGetPr                    00000001800379f4 f   libmx:libmx.dll
 0001:000369fa       mxCreateDoubleScalar       00000001800379fa f   libmx:libmx.dll
 0001:00036a00       mxCreateDoubleMatrix_730   0000000180037a00 f   libmx:libmx.dll
 0001:00036a06       mxSetField_730             0000000180037a06 f   libmx:libmx.dll
 0001:00036a0c       mxCreateString             0000000180037a0c f   libmx:libmx.dll
 0001:00036a12       mxCreateStructMatrix_730   0000000180037a12 f   libmx:libmx.dll
 0001:00036a18       mxDestroyArray             0000000180037a18 f   libmx:libmx.dll
 0001:00036a1e       mxDuplicateArray           0000000180037a1e f   libmx:libmx.dll
 0001:00036a24       mxGetString_730            0000000180037a24 f   libmx:libmx.dll
 0001:00036a2a       mxIsChar                   0000000180037a2a f   libmx:libmx.dll
 0001:00036a30       mxGetClassID               0000000180037a30 f   libmx:libmx.dll
 0001:00036a36       mxIsNumeric                0000000180037a36 f   libmx:libmx.dll
 0001:00036a3c       mxIsComplex                0000000180037a3c f   libmx:libmx.dll
 0001:00036a42       mxGetN                     0000000180037a42 f   libmx:libmx.dll
 0001:00036a48       mxGetM                     0000000180037a48 f   libmx:libmx.dll
 0001:00036a4e       mxCalloc                   0000000180037a4e f   libmx:libmx.dll
 0001:00036a54       mxGetScalar                0000000180037a54 f   libmx:libmx.dll
 0001:00036a5a       mxIsLogical                0000000180037a5a f   libmx:libmx.dll
 0001:00036a60       mxCreateDoubleMatrix_700   0000000180037a60 f   libmx:libmx.dll
 0001:00036a66       mxFree                     0000000180037a66 f   libmx:libmx.dll
 0001:00036a6c       mxArrayToString            0000000180037a6c f   libmx:libmx.dll
 0001:00036a72       mxCreateCellMatrix_700     0000000180037a72 f   libmx:libmx.dll
 0001:00036a78       mxSetCell_700              0000000180037a78 f   libmx:libmx.dll
 0001:00036a7e       mxGetCell_700              0000000180037a7e f   libmx:libmx.dll
 0001:00036a84       mxGetClassName             0000000180037a84 f   libmx:libmx.dll
 0001:00036a8a       mxSetField_700             0000000180037a8a f   libmx:libmx.dll
 0001:00036a90       mxAddField                 0000000180037a90 f   libmx:libmx.dll
 0001:00036a96       mxGetField_700             0000000180037a96 f   libmx:libmx.dll
 0001:00036a9c       mxGetNumberOfElements      0000000180037a9c f   libmx:libmx.dll
 0001:00036aa2       mxIsStruct                 0000000180037aa2 f   libmx:libmx.dll
 0001:00036aa8       mxIsA                      0000000180037aa8 f   libmx:libmx.dll
 0001:00036aae       mxIsClass                  0000000180037aae f   libmx:libmx.dll
 0001:00036ab4       mxGetLogicals              0000000180037ab4 f   libmx:libmx.dll
 0001:00036aba       mxIsSparse                 0000000180037aba f   libmx:libmx.dll
 0001:00036ac0       mxSetFieldByNumber_700     0000000180037ac0 f   libmx:libmx.dll
 0001:00036ac6       mxGetFieldByNumber_700     0000000180037ac6 f   libmx:libmx.dll
 0001:00036acc       mxGetFieldNameByNumber     0000000180037acc f   libmx:libmx.dll
 0001:00036ad2       mxGetNumberOfFields        0000000180037ad2 f   libmx:libmx.dll
 0001:00036ad8       mxCreateStructMatrix_700   0000000180037ad8 f   libmx:libmx.dll
 0001:00036ade       mxGetFieldNumber           0000000180037ade f   libmx:libmx.dll
 0001:00036ae4       mxIsNaN                    0000000180037ae4 f   libmx:libmx.dll
 0001:00036aea       mxIsEmpty                  0000000180037aea f   libmx:libmx.dll
 0001:00036af0       mxGetData                  0000000180037af0 f   libmx:libmx.dll
 0001:00036af6       mxGetImagData              0000000180037af6 f   libmx:libmx.dll
 0001:00036afc       mxArrayClassIDName         0000000180037afc f   libmx:libmx.dll
 0001:00036b02       mxCreateNumericMatrix_700  0000000180037b02 f   libmx:libmx.dll
 0001:00036b08       mxCreateStructArray_700    0000000180037b08 f   libmx:libmx.dll
 0001:00036b0e       mxCalcSingleSubscript_700  0000000180037b0e f   libmx:libmx.dll
 0001:00036b14       mxGetDimensions_700        0000000180037b14 f   libmx:libmx.dll
 0001:00036b1a       mxGetNumberOfDimensions_700 0000000180037b1a f   libmx:libmx.dll
 0001:00036b20       mxCreateNumericArray_700   0000000180037b20 f   libmx:libmx.dll
 0001:00036b26       mxGetElementSize           0000000180037b26 f   libmx:libmx.dll
 0001:00036b2c       mxCreateStringFromNChars_700 0000000180037b2c f   libmx:libmx.dll
 0001:00036b32       mxGetString_700            0000000180037b32 f   libmx:libmx.dll
 0001:00036b38       mxIsLogicalScalarTrue      0000000180037b38 f   libmx:libmx.dll
 0001:00036b3e       mxCreateLogicalScalar      0000000180037b3e f   libmx:libmx.dll
 0001:00036b44       mexUnlock                  0000000180037b44 f   libmex:libmex.dll
 0001:00036b4a       mexIsLocked                0000000180037b4a f   libmex:libmex.dll
 0001:00036b50       mexWarnMsgTxt              0000000180037b50 f   libmex:libmex.dll
 0001:00036b56       mexCallMATLAB              0000000180037b56 f   libmex:libmex.dll
 0001:00036b5c       mexErrMsgTxt               0000000180037b5c f   libmex:libmex.dll
 0001:00036b62       mexMakeArrayPersistent     0000000180037b62 f   libmex:libmex.dll
 0001:00036b68       mexSetTrapFlag             0000000180037b68 f   libmex:libmex.dll
 0001:00036b6e       mexPutVariable             0000000180037b6e f   libmex:libmex.dll
 0001:00036b74       mexGetVariable             0000000180037b74 f   libmex:libmex.dll
 0001:00036b7a       mexLock                    0000000180037b7a f   libmex:libmex.dll
 0001:00036b80       mexMakeMemoryPersistent    0000000180037b80 f   libmex:libmex.dll
 0001:00036b86       mexFunctionName            0000000180037b86 f   libmex:libmex.dll
 0001:00036b8c       ssRegisterDataTypeFxpFSlopeFixExpBias 0000000180037b8c f   libfixedpoint:libfixedpoint.dll
 0001:00036b92       utVSNprintf                0000000180037b92 f   libut:libut.dll
 0001:00036b98       utCPUtime                  0000000180037b98 f   libut:libut.dll
 0001:00036b9e       utFree                     0000000180037b9e f   libut:libut.dll
 0001:00036ba4       utMalloc                   0000000180037ba4 f   libut:libut.dll
 0001:00036baa       muDoubleScalarSin          0000000180037baa f   libmwmathutil:libmwmathutil.dll
 0001:00036bb0       muDoubleScalarCos          0000000180037bb0 f   libmwmathutil:libmwmathutil.dll
 0001:00036bb6       muDoubleScalarPower        0000000180037bb6 f   libmwmathutil:libmwmathutil.dll
 0001:00036bbc       emlrtCreateRootTLS         0000000180037bbc f   libemlrt:libemlrt.dll
 0001:00036bc2       emlrtDestroyRootTLS        0000000180037bc2 f   libemlrt:libemlrt.dll
 0001:00036bc8       emlrtCheckBuiltInR2012b    0000000180037bc8 f   libemlrt:libemlrt.dll
 0001:00036bce       emlrtCheckVsBuiltInR2012b  0000000180037bce f   libemlrt:libemlrt.dll
 0001:00036bd4       emlrtCheckEnumR2012b       0000000180037bd4 f   libemlrt:libemlrt.dll
 0001:00036bda       emlrtCreateEnumR2012b      0000000180037bda f   libemlrt:libemlrt.dll
 0001:00036be0       emlrtGetEnumElementR2009a  0000000180037be0 f   libemlrt:libemlrt.dll
 0001:00036be6       emlrtCreateReference       0000000180037be6 f   libemlrt:libemlrt.dll
 0001:00036bec       emlrtImportVsFiArrayR2009b 0000000180037bec f   libemlrt:libemlrt.dll
 0001:00036bf2       emlrtNameCapturePostProcessR2012a 0000000180037bf2 f   libemlrt:libemlrt.dll
 0001:00036bf8       emlrtExtractMessageId      0000000180037bf8 f   libemlrt:libemlrt.dll
 0001:00036bfe       emlrtTranslateMessageIDtoLCPstring 0000000180037bfe f   libemlrt:libemlrt.dll
 0001:00036c04       emlrtForLoopVectorIsValidR2011b 0000000180037c04 f   libemlrt:libemlrt.dll
 0001:00036c0a       emlrtTranslateUTF16MessagetoLCPstring 0000000180037c0a f   libemlrt:libemlrt.dll
 0001:00036c10       emlrtGetEnumUnderlyingArrayR2009a 0000000180037c10 f   libemlrt:libemlrt.dll
 0001:00036c16       emlrtIsEnumR2009a          0000000180037c16 f   libemlrt:libemlrt.dll
 0001:00036c1c       __GSHandlerCheckCommon     0000000180037c1c f   MSVCRT:gshandler.obj
 0001:00036c80       __GSHandlerCheck           0000000180037c80 f   MSVCRT:gshandler.obj
 0001:00036c9e       strlen                     0000000180037c9e f   MSVCRT:MSVCR100.dll
 0001:00036cc0       __security_check_cookie    0000000180037cc0 f   MSVCRT:amdsecgs.obj
 0001:00036ce0       memset                     0000000180037ce0 f   MSVCRT:MSVCR100.dll
 0001:00036ce6       malloc                     0000000180037ce6 f   MSVCRT:MSVCR100.dll
 0001:00036cec       free                       0000000180037cec f   MSVCRT:MSVCR100.dll
 0001:00036cf2       strcmp                     0000000180037cf2 f   MSVCRT:MSVCR100.dll
 0001:00036cf8       sprintf                    0000000180037cf8 f   MSVCRT:MSVCR100.dll
 0001:00036cfe       strcat                     0000000180037cfe f   MSVCRT:MSVCR100.dll
 0001:00036d04       memcpy                     0000000180037d04 f   MSVCRT:MSVCR100.dll
 0001:00036d0c       NtCurrentTeb               0000000180037d0c f i MSVCRT:crtdll.obj
 0001:00036d78       _CRT_INIT                  0000000180037d78 f   MSVCRT:crtdll.obj
 0001:00037110       _DllMainCRTStartup         0000000180038110 f   MSVCRT:crtdll.obj
 0001:0003714e       strncpy                    000000018003814e f   MSVCRT:MSVCR100.dll
 0001:00037170       __chkstk                   0000000180038170 f   MSVCRT:chkstk.obj
 0001:00037170       _alloca_probe              0000000180038170     MSVCRT:chkstk.obj
 0001:000371be       longjmp                    00000001800381be f   MSVCRT:MSVCR100.dll
 0001:000371c4       strncmp                    00000001800381c4 f   MSVCRT:MSVCR100.dll
 0001:000371ca       ceil                       00000001800381ca f   MSVCRT:MSVCR100.dll
 0001:000371d0       strrchr                    00000001800381d0 f   MSVCRT:MSVCR100.dll
 0001:000371d6       _setjmp                    00000001800381d6 f   MSVCRT:MSVCR100.dll
 0001:000371dc       calloc                     00000001800381dc f   MSVCRT:MSVCR100.dll
 0001:000371e2       realloc                    00000001800381e2 f   MSVCRT:MSVCR100.dll
 0001:000371e8       ldexp                      00000001800381e8 f   MSVCRT:MSVCR100.dll
 0001:000371f0       __report_gsfailure         00000001800381f0 f   MSVCRT:gs_report.obj
 0001:0003733c       __clean_type_info_names    000000018003833c f   MSVCRT:tncleanup.obj
 0001:00037348       _onexit                    0000000180038348 f   MSVCRT:atonexit.obj
 0001:000373f8       atexit                     00000001800383f8 f   MSVCRT:atonexit.obj
 0001:00037410       _RTC_Initialize            0000000180038410 f   MSVCRT:_initsect_.obj
 0001:00037448       _RTC_Terminate             0000000180038448 f   MSVCRT:_initsect_.obj
 0001:00037480       _malloc_crt                0000000180038480 f   MSVCRT:MSVCR100.dll
 0001:00037490       _ValidateImageBase         0000000180038490 f   MSVCRT:pesect.obj
 0001:000374c0       _FindPESection             00000001800384c0 f   MSVCRT:pesect.obj
 0001:00037510       _IsNonwritableInCurrentImage 0000000180038510 f   MSVCRT:pesect.obj
 0001:00037552       _initterm                  0000000180038552 f   MSVCRT:MSVCR100.dll
 0001:00037558       _initterm_e                0000000180038558 f   MSVCRT:MSVCR100.dll
 0001:0003755e       _encoded_null              000000018003855e f   MSVCRT:MSVCR100.dll
 0001:00037564       _amsg_exit                 0000000180038564 f   MSVCRT:MSVCR100.dll
 0001:0003756a       __C_specific_handler       000000018003856a f   MSVCRT:MSVCR100.dll
 0001:00037570       __CppXcptFilter            0000000180038570 f   MSVCRT:MSVCR100.dll
 0001:00037578       DllMain                    0000000180038578 f   MSVCRT:dllmain.obj
 0001:0003759c       __security_init_cookie     000000018003859c f   MSVCRT:gs_support.obj
 0001:00037650       __crt_debugger_hook        0000000180038650 f   MSVCRT:MSVCR100.dll
 0001:00037656       __clean_type_info_names_internal 0000000180038656 f   MSVCRT:MSVCR100.dll
 0001:0003765c       _unlock                    000000018003865c f   MSVCRT:MSVCR100.dll
 0001:00037662       __dllonexit                0000000180038662 f   MSVCRT:MSVCR100.dll
 0001:00037668       _lock                      0000000180038668 f   MSVCRT:MSVCR100.dll
 0001:0003766e       EncodePointer              000000018003866e f   kernel32:KERNEL32.dll
 0001:00037674       DecodePointer              0000000180038674 f   kernel32:KERNEL32.dll
 0001:0003767a       Sleep                      000000018003867a f   kernel32:KERNEL32.dll
 0001:00037680       TerminateProcess           0000000180038680 f   kernel32:KERNEL32.dll
 0001:00037686       GetCurrentProcess          0000000180038686 f   kernel32:KERNEL32.dll
 0001:0003768c       UnhandledExceptionFilter   000000018003868c f   kernel32:KERNEL32.dll
 0001:00037692       SetUnhandledExceptionFilter 0000000180038692 f   kernel32:KERNEL32.dll
 0001:00037698       IsDebuggerPresent          0000000180038698 f   kernel32:KERNEL32.dll
 0001:0003769e       RtlVirtualUnwind           000000018003869e f   kernel32:KERNEL32.dll
 0001:000376a4       RtlLookupFunctionEntry     00000001800386a4 f   kernel32:KERNEL32.dll
 0001:000376aa       RtlCaptureContext          00000001800386aa f   kernel32:KERNEL32.dll
 0001:000376b0       DisableThreadLibraryCalls  00000001800386b0 f   kernel32:KERNEL32.dll
 0001:000376b6       QueryPerformanceCounter    00000001800386b6 f   kernel32:KERNEL32.dll
 0001:000376bc       GetTickCount               00000001800386bc f   kernel32:KERNEL32.dll
 0001:000376c2       GetCurrentThreadId         00000001800386c2 f   kernel32:KERNEL32.dll
 0001:000376c8       GetCurrentProcessId        00000001800386c8 f   kernel32:KERNEL32.dll
 0001:000376ce       GetSystemTimeAsFileTime    00000001800386ce f   kernel32:KERNEL32.dll
 0002:00000000       __imp_DisableThreadLibraryCalls 0000000180039000     kernel32:KERNEL32.dll
 0002:00000008       __imp_RtlCaptureContext    0000000180039008     kernel32:KERNEL32.dll
 0002:00000010       __imp_RtlLookupFunctionEntry 0000000180039010     kernel32:KERNEL32.dll
 0002:00000018       __imp_RtlVirtualUnwind     0000000180039018     kernel32:KERNEL32.dll
 0002:00000020       __imp_IsDebuggerPresent    0000000180039020     kernel32:KERNEL32.dll
 0002:00000028       __imp_SetUnhandledExceptionFilter 0000000180039028     kernel32:KERNEL32.dll
 0002:00000030       __imp_UnhandledExceptionFilter 0000000180039030     kernel32:KERNEL32.dll
 0002:00000038       __imp_GetCurrentProcess    0000000180039038     kernel32:KERNEL32.dll
 0002:00000040       __imp_TerminateProcess     0000000180039040     kernel32:KERNEL32.dll
 0002:00000048       __imp_Sleep                0000000180039048     kernel32:KERNEL32.dll
 0002:00000050       __imp_DecodePointer        0000000180039050     kernel32:KERNEL32.dll
 0002:00000058       __imp_EncodePointer        0000000180039058     kernel32:KERNEL32.dll
 0002:00000060       __imp_GetTickCount         0000000180039060     kernel32:KERNEL32.dll
 0002:00000068       __imp_GetCurrentThreadId   0000000180039068     kernel32:KERNEL32.dll
 0002:00000070       __imp_GetCurrentProcessId  0000000180039070     kernel32:KERNEL32.dll
 0002:00000078       __imp_GetSystemTimeAsFileTime 0000000180039078     kernel32:KERNEL32.dll
 0002:00000080       __imp_QueryPerformanceCounter 0000000180039080     kernel32:KERNEL32.dll
 0002:00000088       \177KERNEL32_NULL_THUNK_DATA 0000000180039088     kernel32:KERNEL32.dll
 0002:00000090       __imp_realloc              0000000180039090     MSVCRT:MSVCR100.dll
 0002:00000098       __imp__onexit              0000000180039098     MSVCRT:MSVCR100.dll
 0002:000000a0       __imp__lock                00000001800390a0     MSVCRT:MSVCR100.dll
 0002:000000a8       __imp___dllonexit          00000001800390a8     MSVCRT:MSVCR100.dll
 0002:000000b0       __imp__unlock              00000001800390b0     MSVCRT:MSVCR100.dll
 0002:000000b8       __imp___clean_type_info_names_internal 00000001800390b8     MSVCRT:MSVCR100.dll
 0002:000000c0       __imp___crt_debugger_hook  00000001800390c0     MSVCRT:MSVCR100.dll
 0002:000000c8       __imp___CppXcptFilter      00000001800390c8     MSVCRT:MSVCR100.dll
 0002:000000d0       __imp___C_specific_handler 00000001800390d0     MSVCRT:MSVCR100.dll
 0002:000000d8       __imp__amsg_exit           00000001800390d8     MSVCRT:MSVCR100.dll
 0002:000000e0       __imp__encoded_null        00000001800390e0     MSVCRT:MSVCR100.dll
 0002:000000e8       __imp__initterm_e          00000001800390e8     MSVCRT:MSVCR100.dll
 0002:000000f0       __imp__initterm            00000001800390f0     MSVCRT:MSVCR100.dll
 0002:000000f8       __imp__malloc_crt          00000001800390f8     MSVCRT:MSVCR100.dll
 0002:00000100       __imp_ldexp                0000000180039100     MSVCRT:MSVCR100.dll
 0002:00000108       __imp_strlen               0000000180039108     MSVCRT:MSVCR100.dll
 0002:00000110       __imp_calloc               0000000180039110     MSVCRT:MSVCR100.dll
 0002:00000118       __imp__setjmp              0000000180039118     MSVCRT:MSVCR100.dll
 0002:00000120       __imp_strrchr              0000000180039120     MSVCRT:MSVCR100.dll
 0002:00000128       __imp_ceil                 0000000180039128     MSVCRT:MSVCR100.dll
 0002:00000130       __imp_strncmp              0000000180039130     MSVCRT:MSVCR100.dll
 0002:00000138       __imp_longjmp              0000000180039138     MSVCRT:MSVCR100.dll
 0002:00000140       __imp_strncpy              0000000180039140     MSVCRT:MSVCR100.dll
 0002:00000148       __imp_memcpy               0000000180039148     MSVCRT:MSVCR100.dll
 0002:00000150       __imp_strcat               0000000180039150     MSVCRT:MSVCR100.dll
 0002:00000158       __imp_sprintf              0000000180039158     MSVCRT:MSVCR100.dll
 0002:00000160       __imp_strcmp               0000000180039160     MSVCRT:MSVCR100.dll
 0002:00000168       __imp_free                 0000000180039168     MSVCRT:MSVCR100.dll
 0002:00000170       __imp_malloc               0000000180039170     MSVCRT:MSVCR100.dll
 0002:00000178       __imp_memset               0000000180039178     MSVCRT:MSVCR100.dll
 0002:00000180       \177MSVCR100_NULL_THUNK_DATA 0000000180039180     MSVCRT:MSVCR100.dll
 0002:00000188       __imp_emlrtIsEnumR2009a    0000000180039188     libemlrt:libemlrt.dll
 0002:00000190       __imp_emlrtCheckVsBuiltInR2012b 0000000180039190     libemlrt:libemlrt.dll
 0002:00000198       __imp_emlrtGetEnumUnderlyingArrayR2009a 0000000180039198     libemlrt:libemlrt.dll
 0002:000001a0       __imp_emlrtTranslateUTF16MessagetoLCPstring 00000001800391a0     libemlrt:libemlrt.dll
 0002:000001a8       __imp_emlrtForLoopVectorIsValidR2011b 00000001800391a8     libemlrt:libemlrt.dll
 0002:000001b0       __imp_emlrtTranslateMessageIDtoLCPstring 00000001800391b0     libemlrt:libemlrt.dll
 0002:000001b8       __imp_emlrtExtractMessageId 00000001800391b8     libemlrt:libemlrt.dll
 0002:000001c0       __imp_emlrtCheckBuiltInR2012b 00000001800391c0     libemlrt:libemlrt.dll
 0002:000001c8       __imp_emlrtDestroyRootTLS  00000001800391c8     libemlrt:libemlrt.dll
 0002:000001d0       __imp_emlrtCreateRootTLS   00000001800391d0     libemlrt:libemlrt.dll
 0002:000001d8       __imp_emlrtCheckEnumR2012b 00000001800391d8     libemlrt:libemlrt.dll
 0002:000001e0       __imp_emlrtCreateEnumR2012b 00000001800391e0     libemlrt:libemlrt.dll
 0002:000001e8       __imp_emlrtGetEnumElementR2009a 00000001800391e8     libemlrt:libemlrt.dll
 0002:000001f0       __imp_emlrtCreateReference 00000001800391f0     libemlrt:libemlrt.dll
 0002:000001f8       __imp_emlrtImportVsFiArrayR2009b 00000001800391f8     libemlrt:libemlrt.dll
 0002:00000200       __imp_emlrtNameCapturePostProcessR2012a 0000000180039200     libemlrt:libemlrt.dll
 0002:00000208       \177libemlrt_NULL_THUNK_DATA 0000000180039208     libemlrt:libemlrt.dll
 0002:00000210       __imp_ssRegisterDataTypeFxpFSlopeFixExpBias 0000000180039210     libfixedpoint:libfixedpoint.dll
 0002:00000218       \177libfixedpoint_NULL_THUNK_DATA 0000000180039218     libfixedpoint:libfixedpoint.dll
 0002:00000220       __imp_mexFunctionName      0000000180039220     libmex:libmex.dll
 0002:00000228       __imp_mexMakeMemoryPersistent 0000000180039228     libmex:libmex.dll
 0002:00000230       __imp_mexGetVariable       0000000180039230     libmex:libmex.dll
 0002:00000238       __imp_mexPutVariable       0000000180039238     libmex:libmex.dll
 0002:00000240       __imp_mexSetTrapFlag       0000000180039240     libmex:libmex.dll
 0002:00000248       __imp_mexMakeArrayPersistent 0000000180039248     libmex:libmex.dll
 0002:00000250       __imp_mexErrMsgTxt         0000000180039250     libmex:libmex.dll
 0002:00000258       __imp_mexCallMATLAB        0000000180039258     libmex:libmex.dll
 0002:00000260       __imp_mexUnlock            0000000180039260     libmex:libmex.dll
 0002:00000268       __imp_mexIsLocked          0000000180039268     libmex:libmex.dll
 0002:00000270       __imp_mexWarnMsgTxt        0000000180039270     libmex:libmex.dll
 0002:00000278       __imp_mexLock              0000000180039278     libmex:libmex.dll
 0002:00000280       \177libmex_NULL_THUNK_DATA 0000000180039280     libmex:libmex.dll
 0002:00000288       __imp_muDoubleScalarCos    0000000180039288     libmwmathutil:libmwmathutil.dll
 0002:00000290       __imp_muDoubleScalarSin    0000000180039290     libmwmathutil:libmwmathutil.dll
 0002:00000298       __imp_muDoubleScalarPower  0000000180039298     libmwmathutil:libmwmathutil.dll
 0002:000002a0       \177libmwmathutil_NULL_THUNK_DATA 00000001800392a0     libmwmathutil:libmwmathutil.dll
 0002:000002a8       __imp_mxGetN               00000001800392a8     libmx:libmx.dll
 0002:000002b0       __imp_mxGetM               00000001800392b0     libmx:libmx.dll
 0002:000002b8       __imp_mxCalloc             00000001800392b8     libmx:libmx.dll
 0002:000002c0       __imp_mxGetPr              00000001800392c0     libmx:libmx.dll
 0002:000002c8       __imp_mxGetScalar          00000001800392c8     libmx:libmx.dll
 0002:000002d0       __imp_mxIsLogical          00000001800392d0     libmx:libmx.dll
 0002:000002d8       __imp_mxCreateLogicalScalar 00000001800392d8     libmx:libmx.dll
 0002:000002e0       __imp_mxIsLogicalScalarTrue 00000001800392e0     libmx:libmx.dll
 0002:000002e8       __imp_mxGetString_700      00000001800392e8     libmx:libmx.dll
 0002:000002f0       __imp_mxCreateStringFromNChars_700 00000001800392f0     libmx:libmx.dll
 0002:000002f8       __imp_mxGetElementSize     00000001800392f8     libmx:libmx.dll
 0002:00000300       __imp_mxCreateNumericArray_700 0000000180039300     libmx:libmx.dll
 0002:00000308       __imp_mxGetNumberOfDimensions_700 0000000180039308     libmx:libmx.dll
 0002:00000310       __imp_mxGetDimensions_700  0000000180039310     libmx:libmx.dll
 0002:00000318       __imp_mxCalcSingleSubscript_700 0000000180039318     libmx:libmx.dll
 0002:00000320       __imp_mxCreateStructArray_700 0000000180039320     libmx:libmx.dll
 0002:00000328       __imp_mxCreateNumericMatrix_700 0000000180039328     libmx:libmx.dll
 0002:00000330       __imp_mxArrayClassIDName   0000000180039330     libmx:libmx.dll
 0002:00000338       __imp_mxGetImagData        0000000180039338     libmx:libmx.dll
 0002:00000340       __imp_mxGetData            0000000180039340     libmx:libmx.dll
 0002:00000348       __imp_mxIsEmpty            0000000180039348     libmx:libmx.dll
 0002:00000350       __imp_mxIsNaN              0000000180039350     libmx:libmx.dll
 0002:00000358       __imp_mxGetFieldNumber     0000000180039358     libmx:libmx.dll
 0002:00000360       __imp_mxCreateStructMatrix_700 0000000180039360     libmx:libmx.dll
 0002:00000368       __imp_mxGetNumberOfFields  0000000180039368     libmx:libmx.dll
 0002:00000370       __imp_mxGetFieldNameByNumber 0000000180039370     libmx:libmx.dll
 0002:00000378       __imp_mxGetFieldByNumber_700 0000000180039378     libmx:libmx.dll
 0002:00000380       __imp_mxSetFieldByNumber_700 0000000180039380     libmx:libmx.dll
 0002:00000388       __imp_mxIsSparse           0000000180039388     libmx:libmx.dll
 0002:00000390       __imp_mxGetLogicals        0000000180039390     libmx:libmx.dll
 0002:00000398       __imp_mxIsClass            0000000180039398     libmx:libmx.dll
 0002:000003a0       __imp_mxIsA                00000001800393a0     libmx:libmx.dll
 0002:000003a8       __imp_mxIsStruct           00000001800393a8     libmx:libmx.dll
 0002:000003b0       __imp_mxGetNumberOfElements 00000001800393b0     libmx:libmx.dll
 0002:000003b8       __imp_mxGetField_700       00000001800393b8     libmx:libmx.dll
 0002:000003c0       __imp_mxAddField           00000001800393c0     libmx:libmx.dll
 0002:000003c8       __imp_mxSetField_700       00000001800393c8     libmx:libmx.dll
 0002:000003d0       __imp_mxGetClassName       00000001800393d0     libmx:libmx.dll
 0002:000003d8       __imp_mxGetCell_700        00000001800393d8     libmx:libmx.dll
 0002:000003e0       __imp_mxSetCell_700        00000001800393e0     libmx:libmx.dll
 0002:000003e8       __imp_mxCreateCellMatrix_700 00000001800393e8     libmx:libmx.dll
 0002:000003f0       __imp_mxArrayToString      00000001800393f0     libmx:libmx.dll
 0002:000003f8       __imp_mxFree               00000001800393f8     libmx:libmx.dll
 0002:00000400       __imp_mxIsComplex          0000000180039400     libmx:libmx.dll
 0002:00000408       __imp_mxIsNumeric          0000000180039408     libmx:libmx.dll
 0002:00000410       __imp_mxGetClassID         0000000180039410     libmx:libmx.dll
 0002:00000418       __imp_mxIsChar             0000000180039418     libmx:libmx.dll
 0002:00000420       __imp_mxGetString_730      0000000180039420     libmx:libmx.dll
 0002:00000428       __imp_mxDuplicateArray     0000000180039428     libmx:libmx.dll
 0002:00000430       __imp_mxDestroyArray       0000000180039430     libmx:libmx.dll
 0002:00000438       __imp_mxCreateStructMatrix_730 0000000180039438     libmx:libmx.dll
 0002:00000440       __imp_mxCreateString       0000000180039440     libmx:libmx.dll
 0002:00000448       __imp_mxSetField_730       0000000180039448     libmx:libmx.dll
 0002:00000450       __imp_mxCreateDoubleMatrix_730 0000000180039450     libmx:libmx.dll
 0002:00000458       __imp_mxCreateDoubleScalar 0000000180039458     libmx:libmx.dll
 0002:00000460       __imp_mxCreateDoubleMatrix_700 0000000180039460     libmx:libmx.dll
 0002:00000468       \177libmx_NULL_THUNK_DATA  0000000180039468     libmx:libmx.dll
 0002:00000470       __imp_utMalloc             0000000180039470     libut:libut.dll
 0002:00000478       __imp_utFree               0000000180039478     libut:libut.dll
 0002:00000480       __imp_utVSNprintf          0000000180039480     libut:libut.dll
 0002:00000488       __imp_utCPUtime            0000000180039488     libut:libut.dll
 0002:00000490       \177libut_NULL_THUNK_DATA  0000000180039490     libut:libut.dll
 0002:00000498       __xc_a                     0000000180039498     MSVCRT:cinitexe.obj
 0002:000004a0       __xc_z                     00000001800394a0     MSVCRT:cinitexe.obj
 0002:000004a8       __xi_a                     00000001800394a8     MSVCRT:cinitexe.obj
 0002:000004b8       __xi_z                     00000001800394b8     MSVCRT:cinitexe.obj
 0002:000004c0       __real@41e387e925800000    00000001800394c0     c2_fuzzy_sliding_pendubot_simulate_22_5_2017.obj
 0002:000004c8       __real@41d62645b2c00000    00000001800394c8     c2_fuzzy_sliding_pendubot_simulate_22_5_2017.obj
 0002:000004d0       __real@41e79dbf46600000    00000001800394d0     c2_fuzzy_sliding_pendubot_simulate_22_5_2017.obj
 0002:000004d8       __real@41de83e28a800000    00000001800394d8     c2_fuzzy_sliding_pendubot_simulate_22_5_2017.obj
 0002:000004e0       __real@4024000000000000    00000001800394e0     c2_fuzzy_sliding_pendubot_simulate_22_5_2017.obj
 0002:000004e8       __real@3ff0000000000000    00000001800394e8     c2_fuzzy_sliding_pendubot_simulate_22_5_2017.obj
 0002:000004f0       __real@3fd97d84901d1915    00000001800394f0     c2_fuzzy_sliding_pendubot_simulate_22_5_2017.obj
 0002:000004f8       __real@3fb396af038e29fa    00000001800394f8     c2_fuzzy_sliding_pendubot_simulate_22_5_2017.obj
 0002:00000500       __mask@@NegDouble@         0000000180039500     c2_fuzzy_sliding_pendubot_simulate_22_5_2017.obj
 0002:00000510       __real@3f1f4aa7ffc7fb9f    0000000180039510     c2_fuzzy_sliding_pendubot_simulate_22_5_2017.obj
 0002:00000518       __real@3f49304175181583    0000000180039518     c2_fuzzy_sliding_pendubot_simulate_22_5_2017.obj
 0002:00000520       __real@3ec46a1dbfa959c8    0000000180039520     c2_fuzzy_sliding_pendubot_simulate_22_5_2017.obj
 0002:00000528       __real@3ec941a4cdf0b25c    0000000180039528     c2_fuzzy_sliding_pendubot_simulate_22_5_2017.obj
 0002:00000530       __real@3ef6b4dcc7eadb6e    0000000180039530     c2_fuzzy_sliding_pendubot_simulate_22_5_2017.obj
 0002:00000538       __real@3e304e341aed560c    0000000180039538     c2_fuzzy_sliding_pendubot_simulate_22_5_2017.obj
 0002:00000540       __real@40239eb851eb851f    0000000180039540     c2_fuzzy_sliding_pendubot_simulate_22_5_2017.obj
 0002:00000548       __real@3f7ff2e48e8a71de    0000000180039548     c2_fuzzy_sliding_pendubot_simulate_22_5_2017.obj
 0002:00000550       __real@3fa4c985f06f6944    0000000180039550     c2_fuzzy_sliding_pendubot_simulate_22_5_2017.obj
 0002:00000558       __real@3f598f1d3ed527e5    0000000180039558     c2_fuzzy_sliding_pendubot_simulate_22_5_2017.obj
 0002:00000560       __real@3f5f9f01b866e43b    0000000180039560     c2_fuzzy_sliding_pendubot_simulate_22_5_2017.obj
 0002:00000568       __real@3f86fa82e87d2c7c    0000000180039568     c2_fuzzy_sliding_pendubot_simulate_22_5_2017.obj
 0002:00000570       __real@4000000000000000    0000000180039570     c2_fuzzy_sliding_pendubot_simulate_22_5_2017.obj
 0002:00000578       __real@4014000000000000    0000000180039578     c2_fuzzy_sliding_pendubot_simulate_22_5_2017.obj
 0002:00000580       DYNAMIC_DIMENSION_DEF      0000000180039580     fuzzy_sliding_pendubot_simulate_22_5_2017_sfun_registry.obj
 0002:000005a0       _ssBadLevel2InputAccessMsg 00000001800395a0     fuzzy_sliding_pendubot_simulate_22_5_2017_sfun_registry.obj
 0002:00000730       _ssBadLevel2DirectFeedMsg  0000000180039730     fuzzy_sliding_pendubot_simulate_22_5_2017_sfun_registry.obj
 0002:00000870       _ssBadLevel2DirectFeedSolutionMsg 0000000180039870     fuzzy_sliding_pendubot_simulate_22_5_2017_sfun_registry.obj
 0002:000008e0       _ssBadLevel2ZeroDirectFeedMsg 00000001800398e0     fuzzy_sliding_pendubot_simulate_22_5_2017_sfun_registry.obj
 0002:00000a20       _ssBadLevel2ZeroDirectFeedMsg2 0000000180039a20     fuzzy_sliding_pendubot_simulate_22_5_2017_sfun_registry.obj
 0002:00000b08       __real@0000000000000000    0000000180039b08     fuzzy_sliding_pendubot_simulate_22_5_2017_sfun_registry.obj
 0002:00000b10       __real@bff0000000000000    0000000180039b10     fuzzy_sliding_pendubot_simulate_22_5_2017_sfun_registry.obj
 0002:00000b18       __real@41602cbca0000000    0000000180039b18     fuzzy_sliding_pendubot_simulate_22_5_2017_sfun_registry.obj
 0002:00000b20       __real@41c36c824f000000    0000000180039b20     fuzzy_sliding_pendubot_simulate_22_5_2017_sfun.obj
 0002:00000b28       __real@41eff67bdc400000    0000000180039b28     fuzzy_sliding_pendubot_simulate_22_5_2017_sfun.obj
 0002:00000b30       __real@41e03c0a51e00000    0000000180039b30     fuzzy_sliding_pendubot_simulate_22_5_2017_sfun.obj
 0002:00000b38       __real@41e311b49a600000    0000000180039b38     fuzzy_sliding_pendubot_simulate_22_5_2017_sfun.obj
 0002:00000b40       __real@41ed08af7be00000    0000000180039b40     fuzzy_sliding_pendubot_simulate_22_5_2017_sfun.obj
 0002:00000b48       __real@41d03fc151000000    0000000180039b48     fuzzy_sliding_pendubot_simulate_22_5_2017_sfun.obj
 0002:00000b50       __real@41c439d4aa000000    0000000180039b50     fuzzy_sliding_pendubot_simulate_22_5_2017_sfun.obj
 0002:00000b58       __real@41ea8f1e72e00000    0000000180039b58     fuzzy_sliding_pendubot_simulate_22_5_2017_sfun.obj
 0002:00000b60       __real@41d3a1dfc9400000    0000000180039b60     fuzzy_sliding_pendubot_simulate_22_5_2017_sfun.obj
 0002:00000b68       __real@41de61891d000000    0000000180039b68     fuzzy_sliding_pendubot_simulate_22_5_2017_sfun.obj
 0002:00000b70       __real@41d983568c000000    0000000180039b70     fuzzy_sliding_pendubot_simulate_22_5_2017_sfun.obj
 0002:00000b78       __real@41d3e25923800000    0000000180039b78     fuzzy_sliding_pendubot_simulate_22_5_2017_sfun.obj
 0002:00000b80       __real@41c2680665000000    0000000180039b80     fuzzy_sliding_pendubot_simulate_22_5_2017_sfun.obj
 0002:00000b88       __real@41e45afb20000000    0000000180039b88     fuzzy_sliding_pendubot_simulate_22_5_2017_sfun.obj
 0002:00000b90       __real@41ee17f4f3800000    0000000180039b90     fuzzy_sliding_pendubot_simulate_22_5_2017_sfun.obj
 0002:00000b98       __real@41e7b06c13800000    0000000180039b98     fuzzy_sliding_pendubot_simulate_22_5_2017_sfun.obj
 0002:00000ba0       ??_C@_00CNPNBAHC@?$AA@     0000000180039ba0     sfc_mex:sfc_mex.obj
 0002:00000ba4       ??_C@_05DGLCPCBN@?$CFsx?$CFd?$AA@ 0000000180039ba4     sfc_mex:sfc_mex.obj
 0002:00000bac       ??_C@_02DPKJAMEF@?$CFd?$AA@ 0000000180039bac     sfc_mex:sfc_mex.obj
 0002:00000bb0       ??_C@_0CC@DJOAOECF@Unknown?5MATLAB?5error?5encountered@ 0000000180039bb0     sfc_mex:sfc_mex.obj
 0002:00000bd8       ??_C@_0CJ@DAIIKGLI@?$CFs?5in?5?$CFs?5should?5never?5be?5called?5@ 0000000180039bd8     sfc_mex:sfc_mex.obj
 0002:00000c08       ??_C@_0CE@ICKLNELB@Error?5calling?5MATLAB?5function?5?8?$CF@ 0000000180039c08     sfc_mex:sfc_mex.obj
 0002:00000c2c       ??_C@_02DKCKIIND@?$CFs?$AA@ 0000000180039c2c     sfc_mex:sfc_mex.obj
 0002:00000c30       ??_C@_07PHDIELCI@lasterr?$AA@ 0000000180039c30     sfc_mex:sfc_mex.obj
 0002:00000c38       ??_C@_09HKCBALOK@embedded?4?$AA@ 0000000180039c38     sfc_mex:sfc_mex.obj
 0002:00000c44       ??_C@_06BNJCAIGJ@double?$AA@ 0000000180039c44     sfc_mex:sfc_mex.obj
 0002:00000c4c       ??_C@_06EJFMBPJF@single?$AA@ 0000000180039c4c     sfc_mex:sfc_mex.obj
 0002:00000c54       ??_C@_06KKKLBFKN@uint64?$AA@ 0000000180039c54     sfc_mex:sfc_mex.obj
 0002:00000c5c       ??_C@_05DIFFJEPM@int64?$AA@ 0000000180039c5c     sfc_mex:sfc_mex.obj
 0002:00000c64       ??_C@_06PKDKHAMA@uint32?$AA@ 0000000180039c64     sfc_mex:sfc_mex.obj
 0002:00000c6c       ??_C@_05GIMEPBJB@int32?$AA@ 0000000180039c6c     sfc_mex:sfc_mex.obj
 0002:00000c74       ??_C@_06JNNCGBKK@uint16?$AA@ 0000000180039c74     sfc_mex:sfc_mex.obj
 0002:00000c7c       ??_C@_05PCMOAPL@int16?$AA@ 0000000180039c7c     sfc_mex:sfc_mex.obj
 0002:00000c84       ??_C@_05BOGOCLFF@uint8?$AA@ 0000000180039c84     sfc_mex:sfc_mex.obj
 0002:00000c8c       ??_C@_04DCGBOBJJ@int8?$AA@ 0000000180039c8c     sfc_mex:sfc_mex.obj
 0002:00000c94       ??_C@_04KBDJOJNB@?$FL?$CFd?$FN?$AA@ 0000000180039c94     sfc_mex:sfc_mex.obj
 0002:00000ca0       ??_C@_0CD@NFPEPNBJ@Cannot?5add?5field?5?$CFs?5to?5struct?5?$CFs@ 0000000180039ca0     sfc_mex:sfc_mex.obj
 0002:00000cc8       ??_C@_0CF@PLDCCEBG@Cannot?5get?5field?5?$CFs?5from?5struct?5@ 0000000180039cc8     sfc_mex:sfc_mex.obj
 0002:00000cf0       ??_C@_0CO@MFJLJCHI@Struct?5array?5?8?$CFs?8?5does?5not?5have?5@ 0000000180039cf0     sfc_mex:sfc_mex.obj
 0002:00000d20       ??_C@_0DF@IPGEGIDM@Object?5?8?$CFs?8?5is?5not?5a?5struct?3?5can@ 0000000180039d20     sfc_mex:sfc_mex.obj
 0002:00000d58       ??_C@_0BL@KEKJNNL@MATLAB?5expression?5?8?$CFs?8?5?$CFs?4?$AA@ 0000000180039d58     sfc_mex:sfc_mex.obj
 0002:00000d80       ??_C@_0GH@JOEOEBFA@Size?5mismatch?5for?5?8?$CFs?8?5on?5dimens@ 0000000180039d80     sfc_mex:sfc_mex.obj
 0002:00000de8       ??_C@_04IAGNFIBA@size?$AA@ 0000000180039de8     sfc_mex:sfc_mex.obj
 0002:00000df0       ??_C@_0DN@DNLDLJNN@is?5not?5of?5the?5correct?5class?3?5exp@ 0000000180039df0     sfc_mex:sfc_mex.obj
 0002:00000e30       ??_C@_06POLMGHPK@isreal?$AA@ 0000000180039e30     sfc_mex:sfc_mex.obj
 0002:00000e38       ??_C@_0CC@EDDDCJDC@is?5not?5of?5the?5correct?5complexnes@ 0000000180039e38     sfc_mex:sfc_mex.obj
 0002:00000e60       ??_C@_0CB@POBCEEOP@is?5not?5of?5the?5correct?5sparseness@ 0000000180039e60     sfc_mex:sfc_mex.obj
 0002:00000e88       ??_C@_0CC@JOFDGEBC@is?5not?5of?5the?5correct?5numerictyp@ 0000000180039e88     sfc_mex:sfc_mex.obj
 0002:00000eb0       ??_C@_07MIMONDDE@isequal?$AA@ 0000000180039eb0     sfc_mex:sfc_mex.obj
 0002:00000eb8       ??_C@_0M@NAPEIPJI@numerictype?$AA@ 0000000180039eb8     sfc_mex:sfc_mex.obj
 0002:00000ec8       ??_C@_0BN@IMIABIKK@is?5not?5of?5the?5correct?5fimath?$AA@ 0000000180039ec8     sfc_mex:sfc_mex.obj
 0002:00000ee8       ??_C@_06LJOKAFHF@fimath?$AA@ 0000000180039ee8     sfc_mex:sfc_mex.obj
 0002:00000ef0       ??_C@_0EP@IAFBLFNF@Stateflow?5Internal?5Error?3?5?6Error@ 0000000180039ef0     sfc_mex:sfc_mex.obj
 0002:00000f40       ??_C@_02GFKODMMF@sf?$AA@   0000000180039f40     sfc_mex:sfc_mex.obj
 0002:00000f48       ??_C@_08MJJBNONC@mxDecode?$AA@ 0000000180039f48     sfc_mex:sfc_mex.obj
 0002:00000f60       ??_C@_0GH@OOBFJADG@Simulation?5stopped?5due?5to?5out?5of@ 0000000180039f60     sfc_mex:sfc_mex.obj
 0002:00000fd0       ??_C@_0HC@JODLBNFO@Simulation?5stopped?5due?5to?5size?5m@ 0000000180039fd0     sfc_mex:sfc_mex.obj
 0002:00001050       ??_C@_0HC@PPOAOPGB@Simulation?5stopped?5due?5to?5size?5m@ 000000018003a050     sfc_mex:sfc_mex.obj
 0002:000010d0       ??_C@_0JM@OFMOAAGL@Simulation?5stopped?5due?5to?5size?5m@ 000000018003a0d0     sfc_mex:sfc_mex.obj
 0002:00001170       ??_C@_0KC@ODCGHMPH@Simulation?5stopped?5due?5to?5size?5o@ 000000018003a170     sfc_mex:sfc_mex.obj
 0002:00001220       ??_C@_0GO@BKNPNGBP@Subscripted?5assignment?5dimension@ 000000018003a220     sfc_mex:sfc_mex.obj
 0002:00001290       ??_C@_0DJ@MEDANBMA@Enable?5debugging?5to?5pinpoint?5the@ 000000018003a290     sfc_mex:sfc_mex.obj
 0002:000012cc       ??_C@_01CLKCMJKC@?5?$AA@   000000018003a2cc     sfc_mex:sfc_mex.obj
 0002:000012d0       ??_C@_0BAO@DDKKHLGF@Matrix?$CImatrix?$CJ?5subscript?5turned?5@ 000000018003a2d0     sfc_mex:sfc_mex.obj
 0002:000013e0       ??_C@_0BAO@MGKOAKHL@Vector?$CIvector?$CJ?5subscript?5turned?5@ 000000018003a3e0     sfc_mex:sfc_mex.obj
 0002:000014f0       ??_C@_0FA@KAHDAHHI@Cannot?5determine?5the?5exact?5numbe@ 000000018003a4f0     sfc_mex:sfc_mex.obj
 0002:00001540       ??_C@_0FC@HJKNPCCF@Negative?5value?5detected?4?5Enable?5@ 000000018003a540     sfc_mex:sfc_mex.obj
 0002:00001598       ??_C@_0DK@JJKHINMK@Overflow?5detected?4?5Enable?5debugg@ 000000018003a598     sfc_mex:sfc_mex.obj
 0002:000015e0       ??_C@_0EA@POIJMBCP@Divide?5by?5zero?5detected?4?5Enable?5@ 000000018003a5e0     sfc_mex:sfc_mex.obj
 0002:00001620       ??_C@_0EK@CFEMECLL@Nonconforming?5enum?5value?5detecte@ 000000018003a620     sfc_mex:sfc_mex.obj
 0002:00001670       ??_C@_0EE@BPGAOMO@Size?5mismatch?5for?5MATLAB?5express@ 000000018003a670     sfc_mex:sfc_mex.obj
 0002:000016c0       ??_C@_0EJ@KLNPHOFG@Dimension?5of?5fixed?5size?5one?5?$CI1?$CJ?5@ 000000018003a6c0     sfc_mex:sfc_mex.obj
 0002:00001710       ??_C@_07JFPGMOK@fprintf?$AA@ 000000018003a710     sfc_mex:sfc_mex.obj
 0002:00001720       ??_C@_0FE@EHCFPDEG@In?5MATLAB?5expression?5?8?$CFs?8?0?5field@ 000000018003a720     sfc_mex:sfc_mex.obj
 0002:00001778       ??_C@_0DE@IJIFCHLH@In?5MATLAB?5expression?5?8?$CFs?8?0?5field@ 000000018003a778     sfc_mex:sfc_mex.obj
 0002:000017b0       ??_C@_0FK@JKPMKGDE@MATLAB?5expression?5?8?$CFs?8?5does?5not?5@ 000000018003a7b0     sfc_mex:sfc_mex.obj
 0002:0000180c       ??_C@_06PBJBIPGK@struct?$AA@ 000000018003a80c     sfc_mex:sfc_mex.obj
 0002:00001818       ??_C@_0O@NFNPPCGN@isfimathlocal?$AA@ 000000018003a818     sfc_mex:sfc_mex.obj
 0002:00001828       ??_C@_0M@MLCGNPLD@embedded?4fi?$AA@ 000000018003a828     sfc_mex:sfc_mex.obj
 0002:00001838       ??_C@_0M@EGMNDJHO@?$CFs?5?$DN?5?$CF?415g?6?$AA@ 000000018003a838     sfc_mex:sfc_mex.obj
 0002:00001844       ??_C@_03OFAPEBGM@?$CFs?6?$AA@ 000000018003a844     sfc_mex:sfc_mex.obj
 0002:00001848       ??_C@_0CL@LLBJDFID@failed?5sf_assertion?5in?5?$CFs?5at?5lin@ 000000018003a848     sfc_mex:sfc_mex.obj
 0002:00001880       ??_C@_0EJ@MIHEOKKA@?8?$CFs?8?3?5Array?5with?5number?5of?5dimen@ 000000018003a880     sfc_mex:sfc_mex.obj
 0002:000018d0       ??_C@_09JCLLFAHO@sfc_mex?4c?$AA@ 000000018003a8d0     sfc_mex:sfc_mex.obj
 0002:000018e0       ??_C@_0O@FCFMOEOA@aNumDims?5?$DO?$DN?50?$AA@ 000000018003a8e0     sfc_mex:sfc_mex.obj
 0002:000018f0       ??_C@_0CK@KDIMGCCA@?8?$CFs?8?3?5Sparse?5matrices?5are?5not?5su@ 000000018003a8f0     sfc_mex:sfc_mex.obj
 0002:00001920       ??_C@_0CI@KBLJAMNB@MATLAB?5expression?5?8?$CFs?8?5is?5not?5nu@ 000000018003a920     sfc_mex:sfc_mex.obj
 0002:00001948       ??_C@_0P@LCMMCGDM@aSrcMx?5?$CB?$DN?5NULL?$AA@ 000000018003a948     sfc_mex:sfc_mex.obj
 0002:00001960       ??_C@_0EI@HJNNACGI@Eval?5of?5MATLAB?5expression?5?8?$CFs?8?5i@ 000000018003a960     sfc_mex:sfc_mex.obj
 0002:000019a8       ??_C@_0DM@BJICAGGK@Stateflow?5currently?5only?5support@ 000000018003a9a8     sfc_mex:sfc_mex.obj
 0002:000019e4       ??_C@_05LAPONLG@false?$AA@ 000000018003a9e4     sfc_mex:sfc_mex.obj
 0002:000019ec       ??_C@_03LHCJEHON@nan?$AA@  000000018003a9ec     sfc_mex:sfc_mex.obj
 0002:000019f0       ??_C@_04BHIIPFEC@base?$AA@ 000000018003a9f0     sfc_mex:sfc_mex.obj
 0002:000019f8       ??_C@_06PLMANNP@evalin?$AA@ 000000018003a9f8     sfc_mex:sfc_mex.obj
 0002:00001a00       ??_C@_06GFECGKEO@caller?$AA@ 000000018003aa00     sfc_mex:sfc_mex.obj
 0002:00001a08       ??_C@_0CM@LOMLNLMC@Invalid?5workspace?5type?5for?5sf_ma@ 000000018003aa08     sfc_mex:sfc_mex.obj
 0002:00001a34       ??_C@_01GBGANLPD@0?$AA@    000000018003aa34     sfc_mex:sfc_mex.obj
 0002:00001a38       ??_C@_06FJKEMHGD@global?$AA@ 000000018003aa38     sfc_mex:sfc_mex.obj
 0002:00001a40       ??_C@_08KHPDDPHG@getfield?$AA@ 000000018003aa40     sfc_mex:sfc_mex.obj
 0002:00001a4c       ??_C@_05LPIJGKJ@Value?$AA@ 000000018003aa4c     sfc_mex:sfc_mex.obj
 0002:00001a58       ??_C@_0BH@HNIMIIFD@Unknown?5workspace?5type?$AA@ 000000018003aa58     sfc_mex:sfc_mex.obj
 0002:00001a70       ??_C@_0DA@IPMLFPJI@MATLAB?5expression?5?8?$CFs?8?5could?5not@ 000000018003aa70     sfc_mex:sfc_mex.obj
 0002:00001aa0       ??_C@_0EB@HHPLBHBA@Parameter?5value?5out?5of?5bounds?4?5?$CF@ 000000018003aaa0     sfc_mex:sfc_mex.obj
 0002:00001ae8       ??_C@_0CB@DBMOOMDL@Unsupported?5class?5type?5?$CFs?5for?5?$CFs@ 000000018003aae8     sfc_mex:sfc_mex.obj
 0002:00001b10       ??_C@_0BI@OPNKAIOC@mxIsComplex?$CImxArrayPtr?$CJ?$AA@ 000000018003ab10     sfc_mex:sfc_mex.obj
 0002:00001b30       ??_C@_0GA@OFLPCMBM@Stateflow?5Runtime?5Warning?3?5Loss?5@ 000000018003ab30     sfc_mex:sfc_mex.obj
 0002:00001b90       __real@3810000000000000    000000018003ab90     sfc_mex:sfc_mex.obj
 0002:00001b98       __real@47efffffe0000000    000000018003ab98     sfc_mex:sfc_mex.obj
 0002:00001ba0       __real@c060000000000000    000000018003aba0     sfc_mex:sfc_mex.obj
 0002:00001ba8       __real@405fc00000000000    000000018003aba8     sfc_mex:sfc_mex.obj
 0002:00001bb0       __real@406fe00000000000    000000018003abb0     sfc_mex:sfc_mex.obj
 0002:00001bb8       __real@c0e0000000000000    000000018003abb8     sfc_mex:sfc_mex.obj
 0002:00001bc0       __real@40dfffc000000000    000000018003abc0     sfc_mex:sfc_mex.obj
 0002:00001bc8       __real@40efffe000000000    000000018003abc8     sfc_mex:sfc_mex.obj
 0002:00001bd0       __real@c1e0000000000000    000000018003abd0     sfc_mex:sfc_mex.obj
 0002:00001bd8       __real@41dfffffffc00000    000000018003abd8     sfc_mex:sfc_mex.obj
 0002:00001be0       __real@41efffffffe00000    000000018003abe0     sfc_mex:sfc_mex.obj
 0002:00001be8       ??_C@_0DO@JIJMNCAH@Class?5mismatch?5for?5variable?5?8?$CFs?8@ 000000018003abe8     sfc_mex:sfc_mex.obj
 0002:00001c28       ??_C@_03BBKEAIF@?$DP?$DP?$DP?$AA@ 000000018003ac28     sfc_mex:sfc_mex.obj
 0002:00001c30       ??_C@_0DE@HICLJLJO@Assignment?5of?5complex?5data?5to?5no@ 000000018003ac30     sfc_mex:sfc_mex.obj
 0002:00001c68       ??_C@_0CF@NHFFCIEB@MATLAB?5function?5?8?$CFs?8?5returned?5NU@ 000000018003ac68     sfc_mex:sfc_mex.obj
 0002:00001c90       ??_C@_0GP@JPKMBIEI@Array?5bounds?5error?5in?5MATLAB?5exp@ 000000018003ac90     sfc_mex:sfc_mex.obj
 0002:00001d00       ??_C@_0P@FLJFOPHI@pIndex?$FLi?$FN?5?$DO?$DN?50?$AA@ 000000018003ad00     sfc_mex:sfc_mex.obj
 0002:00001d10       ??_C@_0DI@IGEABFHB@MATLAB?5expression?5?8?$CFs?8?5has?5?$CFd?5di@ 000000018003ad10     sfc_mex:sfc_mex.obj
 0002:00001d48       ??_C@_0L@EFLJKPA@mxArrayPtr?$AA@ 000000018003ad48     sfc_mex:sfc_mex.obj
 0002:00001d58       ??_C@_0CK@FHKKOEPH@numDims?5?$DO?$DN?50?5?$CG?$CG?5numDims?5?$DM?$DN?5MAX_D@ 000000018003ad58     sfc_mex:sfc_mex.obj
 0002:00001d90       ??_C@_0EM@MPIDLJBF@MATLAB?5expression?5?8?$CFs?8?5subscript@ 000000018003ad90     sfc_mex:sfc_mex.obj
 0002:00001ddc       ??_C@_04IGKKBJEE@?$DN?$CFg?$DL?$AA@ 000000018003addc     sfc_mex:sfc_mex.obj
 0002:00001de4       ??_C@_01PKGAHCOL@?$CJ?$AA@ 000000018003ade4     sfc_mex:sfc_mex.obj
 0002:00001de8       ??_C@_03LEIBKMN@?0?$CFd?$AA@ 000000018003ade8     sfc_mex:sfc_mex.obj
 0002:00001dec       ??_C@_03IECKINJK@?$CI?$CFd?$AA@ 000000018003adec     sfc_mex:sfc_mex.obj
 0002:00001df0       ??_C@_0FB@HKJNNBFK@Stateflow?5ml?5type?5data?5?8?$CFs?8?5subs@ 000000018003adf0     sfc_mex:sfc_mex.obj
 0002:00001e48       ??_C@_0CN@HPHHCDPK@Stateflow?5ml?5type?5data?5?8?$CFs?8?5is?5n@ 000000018003ae48     sfc_mex:sfc_mex.obj
 0002:00001e78       ??_C@_0CG@JIOBALFE@Stateflow?5ml?5type?5data?5?8?$CFs?8?5is?5e@ 000000018003ae78     sfc_mex:sfc_mex.obj
 0002:00001ea0       ??_C@_0BD@GAHDCPBG@mxArrayPtr?5?$CB?$DN?5NULL?$AA@ 000000018003aea0     sfc_mex:sfc_mex.obj
 0002:00001eb8       ??_C@_0CF@HCINMAFF@result?5?$DN?5mxCreateDoubleScalar?$CIva@ 000000018003aeb8     sfc_mex:sfc_mex.obj
 0002:00001ee0       ??_C@_0BF@GAJKLFOH@fixpt_lower_mx_array?$AA@ 000000018003aee0     sfc_mex:sfc_mex.obj
 0002:00001ef8       ??_C@_02FINOOIBE@Cg?$AA@   000000018003aef8     sfc_mex:sfc_mex.obj
 0002:00001f00       ??_C@_09GIFEIFFL@sfprivate?$AA@ 000000018003af00     sfc_mex:sfc_sf.obj
 0002:00001f10       ??_C@_0CC@JDELABLI@get_machine_and_chart_file_numbe@ 000000018003af10     sfc_mex:sfc_sf.obj
 0002:00001f38       ??_C@_0BO@JCKKMPIB@get_sfun_block_specialization?$AA@ 000000018003af38     sfc_mex:sfc_sf.obj
 0002:00001f60       ??_C@_0FP@OGBKADON@The?5chart?5name?5?4?4?4?$CFs?5is?5not?5pres@ 000000018003af60     sfc_mex:sfc_sf.obj
 0002:00001fc0       ??_C@_0FM@KEMGDKHM@The?5chart?5name?5?$CFs?5is?5not?5present@ 000000018003afc0     sfc_mex:sfc_sf.obj
 0002:00002020       ??_C@_0BD@NMFAPBEK@mdlInitializeSizes?$AA@ 000000018003b020     sfc_mex:sfc_sf.obj
 0002:00002034       ??_C@_06EJFCAODB@sfc_sf?$AA@ 000000018003b034     sfc_mex:sfc_sf.obj
 0002:00002040       ??_C@_0BJ@PBIFPMMD@mdlInitializeSampleTimes?$AA@ 000000018003b040     sfc_mex:sfc_sf.obj
 0002:00002060       ??_C@_0FI@CPPGBPPK@Stateflow?5Internal?5Error?3?5?6Error@ 000000018003b060     sfc_mex:sfc_sf.obj
 0002:000020b8       ??_C@_0CN@GACCLMJH@preload_infomatman_for_rtw_optim@ 000000018003b0b8     sfc_mex:sfc_sf.obj
 0002:000020e8       ??_C@_07CFINJGKH@Private?$AA@ 000000018003b0e8     sfc_mex:sfc_sf.obj
 0002:000020f0       ??_C@_0GC@KEKNFKIJ@Stateflow?5Internal?5Error?3?5?6rtw_o@ 000000018003b0f0     sfc_mex:sfc_sf.obj
 0002:00002160       ??_C@_0EK@MLFDFPLJ@Stateflow?5Internal?5Error?3?5?6Inter@ 000000018003b160     sfc_mex:sfc_sf.obj
 0002:000021b0       ??_C@_0BG@PNKGMGHF@rtw_optimization_info?$AA@ 000000018003b1b0     sfc_mex:sfc_sf.obj
 0002:000021c8       ??_C@_0BA@PHPHFLPF@chart_inlinable?$AA@ 000000018003b1c8     sfc_mex:sfc_sf.obj
 0002:000021e0       ??_C@_0MB@KGDKCEKF@Stateflow?5Internal?5Error?3?5?6Numbe@ 000000018003b1e0     sfc_mex:sfc_sf.obj
 0002:000022b0       ??_C@_0GN@DNCJEGHD@Stateflow?5Internal?5Error?3?5?6Error@ 000000018003b2b0     sfc_mex:sfc_sf.obj
 0002:00002320       ??_C@_0CA@GOKFFBBO@outputEventsWithMultipleCallers?$AA@ 000000018003b320     sfc_mex:sfc_sf.obj
 0002:00002340       ??_C@_0LH@NDHODBLK@Stateflow?5Internal?5Error?3?5?6Numbe@ 000000018003b340     sfc_mex:sfc_sf.obj
 0002:000023f8       ??_C@_0BB@GEEDBOGK@reusable_outputs?$AA@ 000000018003b3f8     sfc_mex:sfc_sf.obj
 0002:00002410       ??_C@_0II@FEBCOBGA@Stateflow?5Internal?5Error?3?5?6Numbe@ 000000018003b410     sfc_mex:sfc_sf.obj
 0002:00002498       ??_C@_0BG@HMMHPAKE@expressionable_inputs?$AA@ 000000018003b498     sfc_mex:sfc_sf.obj
 0002:000024b0       ??_C@_0BB@MBBOKNEL@listen_for_ctrlc?$AA@ 000000018003b4b0     sfc_mex:sfc_sf.obj
 0002:000024c4       ??_C@_03LOANPFAI@mex?$AA@  000000018003b4c4     sfc_mex:sfc_sf.obj
 0002:000024c8       ??_C@_07HLHKBCBI@sfdebug?$AA@ 000000018003b4c8     sfc_mex:sfc_sf.obj
 0002:000024d0       ??_C@_07MFNNEMOJ@drawnow?$AA@ 000000018003b4d0     sfc_mex:sfc_sf.obj
 0002:000024d8       __real@3fd3333333333333    000000018003b4d8     sfc_mex:sfc_sf.obj
 0002:000024e0       ??_C@_0DG@OJBAPEMA@Internal?5Error?3?5paramsIndex?5?$DN?5?$CFd@ 000000018003b4e0     sfc_mex:sfc_sf.obj
 0002:00002520       ??_C@_0BAI@GPDPHGCD@Cannot?5broadcast?5function?5call?5o@ 000000018003b520     sfc_mex:sfc_sf.obj
 0002:00002630       ??_C@_0BBC@NGKHEJAF@Cannot?5enable?1disable?5function?5c@ 000000018003b630     sfc_mex:sfc_sf.obj
 0002:00002748       ??_C@_08HDNBGBNP@bitWidth?$AA@ 000000018003b748     sfc_mex:sfc_sf.obj
 0002:00002758       ??_C@_0BG@MDDFDLDC@resolveToSignalObject?$AA@ 000000018003b758     sfc_mex:sfc_sf.obj
 0002:00002770       ??_C@_07KHBFOCMF@varName?$AA@ 000000018003b770     sfc_mex:sfc_sf.obj
 0002:00002778       ??_C@_09LHPHPAOE@isComplex?$AA@ 000000018003b778     sfc_mex:sfc_sf.obj
 0002:00002788       ??_C@_0CM@OAMAJMIG@Failed?5to?5register?5type?5?8?$CFs?8?5wit@ 000000018003b788     sfc_mex:sfc_sf.obj
 0002:000027b8       ??_C@_08MLIGMCAH@typeSize?$AA@ 000000018003b7b8     sfc_mex:sfc_sf.obj
 0002:000027c8       ??_C@_0BI@OFLHAMB@vector_of_void_pointers?$AA@ 000000018003b7c8     sfc_mex:sfc_sf.obj
 0002:000027e0       ??_C@_04NBAGBPGE@bias?$AA@ 000000018003b7e0     sfc_mex:sfc_sf.obj
 0002:000027e8       ??_C@_08EGJNFMPO@exponent?$AA@ 000000018003b7e8     sfc_mex:sfc_sf.obj
 0002:000027f4       ??_C@_05LAHHKLJI@slope?$AA@ 000000018003b7f4     sfc_mex:sfc_sf.obj
 0002:00002800       ??_C@_0L@EMMELFNN@wordLength?$AA@ 000000018003b800     sfc_mex:sfc_sf.obj
 0002:00002810       ??_C@_08EJEJGLGA@isSigned?$AA@ 000000018003b810     sfc_mex:sfc_sf.obj
 0002:0000281c       ??_C@_05LFJLPLPG@fixpt?$AA@ 000000018003b81c     sfc_mex:sfc_sf.obj
 0002:00002828       ??_C@_07GOBOHMJA@boolean?$AA@ 000000018003b828     sfc_mex:sfc_sf.obj
 0002:00002830       ??_C@_04GPMDFGEJ@type?$AA@ 000000018003b830     sfc_mex:sfc_sf.obj
 0002:00002838       ??_C@_0O@EIPJLOAA@extModeUpload?$AA@ 000000018003b838     sfc_mex:sfc_sf.obj
 0002:00002848       __real@43e0000000000000    000000018003b848     sfc_mex:sfc_sf.obj
 0002:00002850       ??_C@_03PLHFFLIH@ptr?$AA@  000000018003b850     sfc_mex:sfc_sf.obj
 0002:00002858       ??_C@_0BC@HMCIKMPA@requiredStackSize?$AA@ 000000018003b858     sfc_mex:sfc_sf.obj
 0002:00002870       ??_C@_0CB@OCGIMAKA@RegisterMachineParentedDataDwork@ 000000018003b870     sfc_mex:sfc_sf.obj
 0002:00002898       ??_C@_0BD@LFPAKDFC@machineDataVarInfo?$AA@ 000000018003b898     sfc_mex:sfc_sf.obj
 0002:000028b0       ??_C@_09GAJBGLOB@dworkInfo?$AA@ 000000018003b8b0     sfc_mex:sfc_sf.obj
 0002:000028c0       sf_uint_bits_log2          000000018003b8c0     sfc_debug:sfcdebug.obj
 0002:000028e0       ??_C@_04GKMJMOBJ@disp?$AA@ 000000018003b8e0     sfc_debug:sfcdebug.obj
 0002:000028e8       ??_C@_0DJ@GEKCDEED@Runtime?5size?5mismatch?5for?5dimens@ 000000018003b8e8     sfc_debug:sfcdebug.obj
 0002:00002928       ??_C@_0N@IHFJDIPG@load_machine?$AA@ 000000018003b928     sfc_debug:sfcdebug.obj
 0002:00002938       ??_C@_0P@NOFOFJMO@ScriptCacheGet?$AA@ 000000018003b938     sfc_debug:sfcdebug.obj
 0002:00002948       ??_C@_0P@HCIIHGKN@simulationTime?$AA@ 000000018003b948     sfc_debug:sfcdebug.obj
 0002:00002958       ??_C@_06MBJIKMHL@isSend?$AA@ 000000018003b958     sfc_debug:sfcdebug.obj
 0002:00002960       ??_C@_0BC@HKLNGIIJ@messagePortNumber?$AA@ 000000018003b960     sfc_debug:sfcdebug.obj
 0002:00002978       ??_C@_07KGNNMFDL@chartId?$AA@ 000000018003b978     sfc_debug:sfcdebug.obj
 0002:00002980       ??_C@_0BD@LPIHANBP@State?5Entry?5Action?$AA@ 000000018003b980     sfc_debug:sfcdebug.obj
 0002:00002998       ??_C@_0BE@EDAKPKIF@State?5During?5Action?$AA@ 000000018003b998     sfc_debug:sfcdebug.obj
 0002:000029b0       ??_C@_0BC@FKIGLKJE@State?5Exit?5Action?$AA@ 000000018003b9b0     sfc_debug:sfcdebug.obj
 0002:000029c4       ??_C@_04CGFJFPFD@none?$AA@ 000000018003b9c4     sfc_debug:sfcdebug.obj
 0002:000029d0       ??_C@_0BD@JMJALEKH@Transition?5Trigger?$AA@ 000000018003b9d0     sfc_debug:sfcdebug.obj
 0002:000029e8       ??_C@_0BO@JIGLNAHF@Transition?5Guarding?5Condition?$AA@ 000000018003b9e8     sfc_debug:sfcdebug.obj
 0002:00002a08       ??_C@_0BB@ODEGBFLN@Condition?5Action?$AA@ 000000018003ba08     sfc_debug:sfcdebug.obj
 0002:00002a20       ??_C@_0BC@EPJNNAPA@Transition?5Action?$AA@ 000000018003ba20     sfc_debug:sfcdebug.obj
 0002:00002a38       ??_C@_0DI@JGHJOLLJ@INTERNAL?5ERROR?4?5Failed?5assertion@ 000000018003ba38     sfc_debug:sfcdebug.obj
 0002:00002a70       ??_C@_01EEMJAFIK@?6?$AA@   000000018003ba70     sfc_debug:sfcdebug.obj
 0002:00002a78       ??_C@_0P@HHNBJNJA@context_string?$AA@ 000000018003ba78     sfc_debug:sfcdebug.obj
 0002:00002a88       ??_C@_0BN@PMGOFJAJ@shouldAlwaysHonorBreakpoints?$AA@ 000000018003ba88     sfc_debug:sfcdebug.obj
 0002:00002aa8       ??_C@_0DL@EPKGPGLC@?$CImachine?9?$DOdataCompInfo?4fixedPoin@ 000000018003baa8     sfc_debug:sfcdebug.obj
 0002:00002ae8       ??_C@_0L@GJHMCDGO@sfcdebug?4c?$AA@ 000000018003bae8     sfc_debug:sfcdebug.obj
 0002:00002af8       ??_C@_0DE@CBCLKIAM@?$CImachine?9?$DOdataCompInfo?4isComplex@ 000000018003baf8     sfc_debug:sfcdebug.obj
 0002:00002b30       ??_C@_0DP@MDOJBFKE@?$CIinstance?9?$DOdataCompInfo?4fixedPoi@ 000000018003bb30     sfc_debug:sfcdebug.obj
 0002:00002b70       ??_C@_0DM@KFHGIBMB@?$CIinstance?9?$DOdataCompInfo?4fixedPoi@ 000000018003bb70     sfc_debug:sfcdebug.obj
 0002:00002bb0       ??_C@_0DF@IIPJPBAH@?$CIinstance?9?$DOdataCompInfo?4isComple@ 000000018003bbb0     sfc_debug:sfcdebug.obj
 0002:00002be8       ??_C@_0DA@OMEPAHNH@?$CIchart?9?$DOdata?4outputDataFlags?$CJ?4le@ 000000018003bbe8     sfc_debug:sfcdebug.obj
 0002:00002c18       ??_C@_0CP@JPBDBJBK@?$CIchart?9?$DOdata?4inputDataFlags?$CJ?4len@ 000000018003bc18     sfc_debug:sfcdebug.obj
 0002:00002c48       ??_C@_03KGJNKAJD@lic?$AA@  000000018003bc48     sfc_debug:sfcdebug.obj
 0002:00002c4c       ??_C@_04PNMLDJAE@ense?$AA@ 000000018003bc4c     sfc_debug:sfcdebug.obj
 0002:00002c58       ??_C@_0L@ONMHLBPB@?$CFs?$CFs?$CFslbox?$AA@ 000000018003bc58     sfc_debug:sfcdebug.obj
 0002:00002c64       ??_C@_04CLOJJEIM@fixe?$AA@ 000000018003bc64     sfc_debug:sfcdebug.obj
 0002:00002c6c       ??_C@_05CBHOIFCP@t_too?$AA@ 000000018003bc6c     sfc_debug:sfcdebug.obj
 0002:00002c74       ??_C@_06MGFNEDEJ@d_poin?$AA@ 000000018003bc74     sfc_debug:sfcdebug.obj
 0002:00002c7c       ??_C@_04HDOCAJNK@?$CFs?$CFs?$AA@ 000000018003bc7c     sfc_debug:sfcdebug.obj
 0002:00002c84       ??_C@_04BJBBOLDM@chec?$AA@ 000000018003bc84     sfc_debug:sfcdebug.obj
 0002:00002c8c       ??_C@_04KNBDLPKC@kout?$AA@ 000000018003bc8c     sfc_debug:sfcdebug.obj
 0002:00002c98       ??_C@_0BA@FKECJMCE@active_instance?$AA@ 000000018003bc98     sfc_debug:sfcdebug.obj
 0002:00002ca8       ??_C@_0DD@MJFCMKPO@transCnt?5?$DN?$DN?5instance?9?$DOcvToolIds?4@ 000000018003bca8     sfc_debug:sfcdebug.obj
 0002:00002ce0       ??_C@_0CO@MONEMJEL@stateCnt?5?$DN?$DN?5instance?9?$DOcvToolIds?4@ 000000018003bce0     sfc_debug:sfcdebug.obj
 0002:00002d10       ??_C@_0O@ELHBEDAD@init_debugger?$AA@ 000000018003bd10     sfc_debug:sfcdebug.obj
 0002:00002d20       ??_C@_0L@PKOFOKNN@break_here?$AA@ 000000018003bd20     sfc_debug:sfcdebug.obj
 0002:00002d30       ??_C@_0BH@KBPHNGCH@script?4activeMachineId?$AA@ 000000018003bd30     sfc_debug:sfcdebug.obj
 0002:00002d48       ??_C@_03KCHOJKKI@set?$AA@  000000018003bd48     sfc_debug:sfcdebug.obj
 0002:00002d50       ??_C@_0DD@PKMAPHBF@?$CImachine?9?$DOdata?4watchFlags?$CJ?4lengt@ 000000018003bd50     sfc_debug:sfcdebug.obj
 0002:00002d90       ??_C@_0FE@KLPHIMDI@?$CIchart?9?$DOdata?4watchFlags?$CJ?4length?$DO@ 000000018003bd90     sfc_debug:sfcdebug.obj
 0002:00002de8       ??_C@_0BO@GFBPGEIL@bufferSizeGet?5?$DN?$DN?5totalSizeGet?$AA@ 000000018003bde8     sfc_debug:sfcdebug.obj
 0002:00002e08       ??_C@_0BO@BEEPOEDP@bufferSizeSet?5?$DN?$DN?5totalSizeSet?$AA@ 000000018003be08     sfc_debug:sfcdebug.obj
 0002:00002e28       ??_C@_0BG@NNAKOPEK@get_script_line_count?$AA@ 000000018003be28     sfc_debug:sfcdebug.obj
 0002:00002e40       ??_C@_0BJ@GADAHKGG@temporal_threshold_error?$AA@ 000000018003be40     sfc_debug:sfcdebug.obj
 0002:00002e60       ??_C@_0BK@KABIOMCC@transition_conflict_error?$AA@ 000000018003be60     sfc_debug:sfcdebug.obj
 0002:00002e80       ??_C@_0BK@HLPANOPJ@state_inconsistency_error?$AA@ 000000018003be80     sfc_debug:sfcdebug.obj
 0002:00002ea0       ??_C@_0BA@PCEGODO@cycle_detection?$AA@ 000000018003bea0     sfc_debug:sfcdebug.obj
 0002:00002eb0       ??_C@_0CP@HMOGACCG@Simulation?5stopped?5due?5to?5out?5of@ 000000018003beb0     sfc_debug:sfcdebug.obj
 0002:00002ee0       ??_C@_0BD@LFFFHIJG@array_bounds_error?$AA@ 000000018003bee0     sfc_debug:sfcdebug.obj
 0002:00002ef8       ??_C@_0O@IENBAMNA@runtime_error?$AA@ 000000018003bef8     sfc_debug:sfcdebug.obj
 0002:00002f08       ??_C@_0CC@EDKHOOPE@Call?5to?5MATLAB?5function?5aborted?3@ 000000018003bf08     sfc_debug:sfcdebug.obj
 0002:00002f30       ??_C@_0DJ@JBGHLJFL@Simulation?5stopped?5due?5to?5size?5m@ 000000018003bf30     sfc_debug:sfcdebug.obj
 0002:00002f70       ??_C@_0DJ@EAKPCDBG@Simulation?5stopped?5due?5to?5size?5m@ 000000018003bf70     sfc_debug:sfcdebug.obj
 0002:00002fb0       ??_C@_0GD@BJCLDBKO@Simulation?5stopped?5due?5to?5size?5m@ 000000018003bfb0     sfc_debug:sfcdebug.obj
 0002:00003020       ??_C@_0GJ@OHCOIONE@Simulation?5stopped?5due?5to?5size?5o@ 000000018003c020     sfc_debug:sfcdebug.obj
 0002:00003090       ??_C@_0DF@BOMHHCNB@Subscripted?5assignment?5dimension@ 000000018003c090     sfc_debug:sfcdebug.obj
 0002:000030d0       ??_C@_0NG@BOPFGKBO@Matrix?$CImatrix?$CJ?5subscript?5turned?5@ 000000018003c0d0     sfc_debug:sfcdebug.obj
 0002:000031b0       ??_C@_0HE@FPEPCMDA@Matrix?$CImatrix?$CJ?5subscript?5turned?5@ 000000018003c1b0     sfc_debug:sfcdebug.obj
 0002:00003230       ??_C@_0NG@MLJIHJIH@Vector?$CIvector?$CJ?5subscript?5turned?5@ 000000018003c230     sfc_debug:sfcdebug.obj
 0002:00003310       ??_C@_0HE@BHPDCNDF@Vector?$CIvector?$CJ?5subscript?5turned?5@ 000000018003c310     sfc_debug:sfcdebug.obj
 0002:00003388       ??_C@_0BL@HKADOJK@Unknown?5runtime?5error?3?5?$CFs?4?$AA@ 000000018003c388     sfc_debug:sfcdebug.obj
 0002:000033a8       ??_C@_0P@FIEIFKHH@dataName?$CB?$DNNULL?$AA@ 000000018003c3a8     sfc_debug:sfcdebug.obj
 0002:000033b8       ??_C@_0BC@JKFOPCCM@non_integer_error?$AA@ 000000018003c3b8     sfc_debug:sfcdebug.obj
 0002:000033d0       ??_C@_09MMCAMPEC@nan_error?$AA@ 000000018003c3d0     sfc_debug:sfcdebug.obj
 0002:000033e0       ??_C@_0P@KGNBONIG@negative_error?$AA@ 000000018003c3e0     sfc_debug:sfcdebug.obj
 0002:000033f0       ??_C@_0DA@OEGHOJFO@Simulation?5stopped?5due?5to?5divide@ 000000018003c3f0     sfc_debug:sfcdebug.obj
 0002:00003420       ??_C@_0P@DAGNNBKM@overflow_error?$AA@ 000000018003c420     sfc_debug:sfcdebug.obj
 0002:00003430       ??_C@_0BF@IEPBJJM@divide_by_zero_error?$AA@ 000000018003c430     sfc_debug:sfcdebug.obj
 0002:00003448       ??_C@_0BC@CNIFONOF@unsafe_enum_error?$AA@ 000000018003c448     sfc_debug:sfcdebug.obj
 0002:00003460       ??_C@_0BA@GLGJGIFO@data_loss_error?$AA@ 000000018003c460     sfc_debug:sfcdebug.obj
 0002:00003470       ??_C@_0BB@LFNCDKMF@data_range_error?$AA@ 000000018003c470     sfc_debug:sfcdebug.obj
 0002:00003490       ??_C@_0FA@OJFHKNAF@Simulation?5stopped?5because?5a?5dat@ 000000018003c490     sfc_debug:sfcdebug.obj
 0002:000034e0       ??_C@_0BI@LLOJJCOG@read_before_write_error?$AA@ 000000018003c4e0     sfc_debug:sfcdebug.obj
 0002:000034f8       __real@4059000000000000    000000018003c4f8     sfc_debug:sfcdebug.obj
 0002:00003500       ??_C@_0EL@LHLCBPON@objectType?$DN?$DNEVENT_OBJECT?5?$CG?$CG?5obje@ 000000018003c500     sfc_debug:sfcdebug.obj
 0002:00003550       ??_C@_0CK@BGKNIJPH@Simulation?5stopped?5due?5to?5infini@ 000000018003c550     sfc_debug:sfcdebug.obj
 0002:00003580       ??_C@_0BC@OGHOEIO@draw_message_post?$AA@ 000000018003c580     sfc_debug:sfcdebug.obj
 0002:000035a0       ??_C@_0EC@EKMLJIIP@strlen?$CItargetName?$CJ?$DMsizeof?$CIdebugI@ 000000018003c5a0     sfc_debug:sfcdebug.obj
 0002:000035f0       ??_C@_0EE@LPPEFNLK@strlen?$CImachineName?$CJ?$DMsizeof?$CIdebug@ 000000018003c5f0     sfc_debug:sfcdebug.obj
 0002:00003638       ??_C@_0BO@OEBODAF@charts?9?$DOlength?5?$DM?5charts?9?$DOsize?$AA@ 000000018003c638     sfc_debug:sfcdebug.obj
 0002:00003658       ??_C@_0P@NDNBPAGO@charts?9?$DOsize?$DO0?$AA@ 000000018003c658     sfc_debug:sfcdebug.obj
 0002:00003668       ??_C@_09DACGJFPO@terminate?$AA@ 000000018003c668     sfc_debug:sfcdebug.obj
 0002:00003678       ??_C@_0BH@BOIPOAMD@currentoptionalinteger?$AA@ 000000018003c678     sfc_debug:sfc_api.obj
 0002:00003690       ??_C@_0BI@KDFLIHKN@currentstatementcontext?$AA@ 000000018003c690     sfc_debug:sfc_api.obj
 0002:000036a8       ??_C@_0BF@CJJCNHOP@currentstatementinfo?$AA@ 000000018003c6a8     sfc_debug:sfc_api.obj
 0002:000036c0       ??_C@_0BA@EEHAMBBL@currentcoverage?$AA@ 000000018003c6c0     sfc_debug:sfc_api.obj
 0002:000036d0       ??_C@_0BD@CPIGBEHM@currentmachinename?$AA@ 000000018003c6d0     sfc_debug:sfc_api.obj
 0002:000036e8       ??_C@_0BF@MPNFKHIK@currentmachinenumber?$AA@ 000000018003c6e8     sfc_debug:sfc_api.obj
 0002:00003700       ??_C@_0BB@EAGFPGEG@currentmachineid?$AA@ 000000018003c700     sfc_debug:sfc_api.obj
 0002:00003718       ??_C@_0P@LDEJFJKJ@simulationtime?$AA@ 000000018003c718     sfc_debug:sfc_api.obj
 0002:00003728       ??_C@_0P@CKMPNBM@currenttagtype?$AA@ 000000018003c728     sfc_debug:sfc_api.obj
 0002:00003738       ??_C@_0BH@EMAALFDO@currentactiveeventtype?$AA@ 000000018003c738     sfc_debug:sfc_api.obj
 0002:00003750       ??_C@_0BF@BIDFPCPF@currentactiveeventid?$AA@ 000000018003c750     sfc_debug:sfc_api.obj
 0002:00003768       ??_C@_0BA@LAPNNELA@currentobjectid?$AA@ 000000018003c768     sfc_debug:sfc_api.obj
 0002:00003778       ??_C@_0BB@LLJHHKEI@currenteventtype?$AA@ 000000018003c778     sfc_debug:sfc_api.obj
 0002:00003790       ??_C@_0BC@BDADCDEL@currentobjecttype?$AA@ 000000018003c790     sfc_debug:sfc_api.obj
 0002:000037a8       ??_C@_0BH@HDHFFKCN@currentisminortimestep?$AA@ 000000018003c7a8     sfc_debug:sfc_api.obj
 0002:000037c0       ??_C@_0BG@PKFJEKLL@currentinstancehandle?$AA@ 000000018003c7c0     sfc_debug:sfc_api.obj
 0002:000037d8       ??_C@_0BG@GJFHKFBJ@currentinstancenumber?$AA@ 000000018003c7d8     sfc_debug:sfc_api.obj
 0002:000037f0       ??_C@_0BD@DKAMMHEE@currentchartnumber?$AA@ 000000018003c7f0     sfc_debug:sfc_api.obj
 0002:00003808       ??_C@_0P@EANFOHCD@currentchartid?$AA@ 000000018003c808     sfc_debug:sfc_api.obj
 0002:00003818       ??_C@_0CC@JILMFDHL@extract_message_post_receive_inf@ 000000018003c818     sfc_debug:sfc_api.obj
 0002:0000383c       ??_C@_06IMFOKBKF@assign?$AA@ 000000018003c83c     sfc_debug:sfc_api.obj
 0002:00003848       ??_C@_0BC@CMFMGKCG@set_script_cv_ids?$AA@ 000000018003c848     sfc_debug:sfc_api.obj
 0002:00003860       ??_C@_0BE@ONNFKBAC@set_instance_cv_ids?$AA@ 000000018003c860     sfc_debug:sfc_api.obj
 0002:00003878       ??_C@_0BE@CDIKCKCD@get_instance_handle?$AA@ 000000018003c878     sfc_debug:sfc_api.obj
 0002:00003890       ??_C@_0BE@GPEMFILK@break_between_times?$AA@ 000000018003c890     sfc_debug:sfc_api.obj
 0002:000038a8       ??_C@_0O@KGONFDDG@active_states?$AA@ 000000018003c8a8     sfc_debug:sfc_api.obj
 0002:000038b8       ??_C@_0BC@LHALNGBC@state_consistency?$AA@ 000000018003c8b8     sfc_debug:sfc_api.obj
 0002:000038d0       ??_C@_0BE@JNDELHDH@transition_conflict?$AA@ 000000018003c8d0     sfc_debug:sfc_api.obj
 0002:000038e8       ??_C@_0L@ECJAFPAF@data_range?$AA@ 000000018003c8e8     sfc_debug:sfc_api.obj
 0002:000038f8       ??_C@_0O@NAKDKJME@select_charts?$AA@ 000000018003c8f8     sfc_debug:sfc_api.obj
 0002:00003908       ??_C@_0N@KLDBDGD@select_chart?$AA@ 000000018003c908     sfc_debug:sfc_api.obj
 0002:00003918       ??_C@_0O@NJPMKBAC@set_animation?$AA@ 000000018003c918     sfc_debug:sfc_api.obj
 0002:00003928       ??_C@_09FLOFKLFE@set_watch?$AA@ 000000018003c928     sfc_debug:sfc_api.obj
 0002:00003938       ??_C@_0O@ECMAEPOC@get_script_id?$AA@ 000000018003c938     sfc_debug:sfc_api.obj
 0002:00003948       ??_C@_0BJ@KFGPCNG@query_script_breakpoints?$AA@ 000000018003c948     sfc_debug:sfc_api.obj
 0002:00003968       ??_C@_0BJ@CAAHLJNF@clear_script_breakpoints?$AA@ 000000018003c968     sfc_debug:sfc_api.obj
 0002:00003988       ??_C@_0BH@BAILBHDP@add_script_breakpoints?$AA@ 000000018003c988     sfc_debug:sfc_api.obj
 0002:000039a0       ??_C@_0BH@KAKDDELG@set_script_breakpoints?$AA@ 000000018003c9a0     sfc_debug:sfc_api.obj
 0002:000039b8       ??_C@_0BE@GAGDJPKA@set_eml_breakpoints?$AA@ 000000018003c9b8     sfc_debug:sfc_api.obj
 0002:000039d0       ??_C@_0BA@NHOBHLLJ@set_breakpoints?$AA@ 000000018003c9d0     sfc_debug:sfc_api.obj
 0002:000039e0       ??_C@_0BF@GOGOODJG@break_on_state_entry?$AA@ 000000018003c9e0     sfc_debug:sfc_api.obj
 0002:000039f8       ??_C@_0BJ@FPOJDFBP@break_on_event_broadcast?$AA@ 000000018003c9f8     sfc_debug:sfc_api.obj
 0002:00003a18       ??_C@_0BF@FJBBAFJ@break_on_chart_entry?$AA@ 000000018003ca18     sfc_debug:sfc_api.obj
 0002:00003a30       ??_C@_0N@MHHEHLAI@browse_trace?$AA@ 000000018003ca30     sfc_debug:sfc_api.obj
 0002:00003a40       ??_C@_0BB@JEAJMJMI@consistency_info?$AA@ 000000018003ca40     sfc_debug:sfc_api.obj
 0002:00003a54       ??_C@_04MLCEENPJ@whos?$AA@ 000000018003ca54     sfc_debug:sfc_api.obj
 0002:00003a60       ??_C@_0L@LNIDAIN@watch_data?$AA@ 000000018003ca60     sfc_debug:sfc_api.obj
 0002:00003a70       ??_C@_0M@JEJMEFEG@browse_data?$AA@ 000000018003ca70     sfc_debug:sfc_api.obj
 0002:00003a7c       ??_C@_03HNAFFKGA@get?$AA@  000000018003ca7c     sfc_debug:sfc_api.obj
 0002:00003a80       ??_C@_05LBOHBHFK@close?$AA@ 000000018003ca80     sfc_debug:sfc_api.obj
 0002:00003a88       ??_C@_0BM@ICDFOOIE@set_disable_all_breakpoints?$AA@ 000000018003ca88     sfc_debug:sfc_api.obj
 0002:00003aa8       ??_C@_0BP@IBIALPGH@disable_all_breakpoints_and_go?$AA@ 000000018003caa8     sfc_debug:sfc_api.obj
 0002:00003ac8       ??_C@_0BJ@BOMFHJBD@is_array_bounds_detected?$AA@ 000000018003cac8     sfc_debug:sfc_api.obj
 0002:00003ae8       ??_C@_0BC@LKOOEAAH@is_cycle_detected?$AA@ 000000018003cae8     sfc_debug:sfc_api.obj
 0002:00003b00       ??_C@_0P@NIBPNIDJ@stop_debugging?$AA@ 000000018003cb00     sfc_debug:sfc_api.obj
 0002:00003b10       ??_C@_05ELPHFHOI@break?$AA@ 000000018003cb10     sfc_debug:sfc_api.obj
 0002:00003b18       ??_C@_06PLELHCEK@resume?$AA@ 000000018003cb18     sfc_debug:sfc_api.obj
 0002:00003b20       ??_C@_08OKABEMKO@step_out?$AA@ 000000018003cb20     sfc_debug:sfc_api.obj
 0002:00003b30       ??_C@_09CDNMPCHO@step_over?$AA@ 000000018003cb30     sfc_debug:sfc_api.obj
 0002:00003b3c       ??_C@_02KPEDIMCA@go?$AA@   000000018003cb3c     sfc_debug:sfc_api.obj
 0002:00003b40       ??_C@_0P@MMCMIGPN@debugger_alive?$AA@ 000000018003cb40     sfc_debug:sfc_api.obj
 0002:00003b50       ??_C@_0N@GHFBLJDM@machine_load?$AA@ 000000018003cb50     sfc_debug:sfc_api.obj
 0002:00003b60       ??_C@_0O@GIBFCMLF@chart_visible?$AA@ 000000018003cb60     sfc_debug:sfc_api.obj
 0002:00003f80       ??_C@_05JEMLEKKA@found?$AA@ 000000018003cf80     sfc_debug:sfc_api.obj
 0002:00003f88       ??_C@_09KFNMLIAN@sfc_api?4c?$AA@ 000000018003cf88     sfc_debug:sfc_api.obj
 0002:00003f98       ??_C@_0N@PFBMDOLG@sf_debug_api?$AA@ 000000018003cf98     sfc_debug:sfc_api.obj
 0002:00003fa8       ??_C@_07KEAHHHLK@nrhs?$DN?$DN3?$AA@ 000000018003cfa8     sfc_debug:sfc_api.obj
 0002:00003fb0       ??_C@_0BC@HOOMKBNL@mxIsChar?$CIprhs?$FL0?$FN?$CJ?$AA@ 000000018003cfb0     sfc_debug:sfc_api.obj
 0002:00003fc8       ??_C@_0BF@NGLAGMHA@mxIsNumeric?$CIprhs?$FL0?$FN?$CJ?$AA@ 000000018003cfc8     sfc_debug:sfc_api.obj
 0002:00003fe0       ??_C@_07IEIELKNG@nrhs?$DO?$DN1?$AA@ 000000018003cfe0     sfc_debug:sfc_api.obj
 0002:00003fe8       ??_C@_07LNBMEGPL@nrhs?$DN?$DN2?$AA@ 000000018003cfe8     sfc_debug:sfc_api.obj
 0002:00003ff0       ??_C@_0BD@DPNMCCEH@nrhs?$DN?$DN1?5?$HM?$HM?5nrhs?$DN?$DN3?$AA@ 000000018003cff0     sfc_debug:sfc_api.obj
 0002:00004008       ??_C@_09FKOBHCEN@nrhs?5?$DN?$DN?52?$AA@ 000000018003d008     sfc_debug:sfc_api.obj
 0002:00004018       ??_C@_09EMKMAIDO@nrhs?5?$DM?$DN?51?$AA@ 000000018003d018     sfc_debug:sfc_api.obj
 0002:00004028       ??_C@_07OLEGOBHN@nrhs?$DN?$DN4?$AA@ 000000018003d028     sfc_debug:sfc_api.obj
 0002:00004030       ??_C@_07PCFNNADM@nrhs?$DN?$DN5?$AA@ 000000018003d030     sfc_debug:sfc_api.obj
 0002:00004038       ??_C@_07JGDBBFDI@nrhs?$DN?$DN1?$AA@ 000000018003d038     sfc_debug:sfc_api.obj
 0002:00004040       ??_C@_07KBNAPCKL@nlhs?$DN?$DN1?$AA@ 000000018003d040     sfc_debug:sfc_api.obj
 0002:00004048       ??_C@_08PAMHJLPB@statusOk?$AA@ 000000018003d048     sfc_debug:sfc_api.obj
 0002:00004058       ??_C@_07NJHAIDPP@nrhs?$DN?$DN6?$AA@ 000000018003d058     sfc_debug:sfc_api.obj
 0002:00004060       ??_C@_0L@EMNHGDGL@nlhs?$DN?$DNnrhs?$AA@ 000000018003d060     sfc_debug:sfc_api.obj
 0002:00004070       ??_C@_0P@BLJCAHMG@select_objects?$AA@ 000000018003d070     sfc_debug:sfdb_animation.obj
 0002:00004080       ??_C@_06CFKBOPCI@states?$AA@ 000000018003d080     sfc_debug:sfdb_animation.obj
 0002:00004088       ??_C@_0P@KHIIFDEG@instanceHandle?$AA@ 000000018003d088     sfc_debug:sfdb_animation.obj
 0002:00004098       ??_C@_0P@DEIGLMOE@instanceNumber?$AA@ 000000018003d098     sfc_debug:sfdb_animation.obj
 0002:000040a8       ??_C@_0N@HACOJJON@instanceName?$AA@ 000000018003d0a8     sfc_debug:sfdb_animation.obj
 0002:000040b8       ??_C@_0M@BFNIOHPP@chartNumber?$AA@ 000000018003d0b8     sfc_debug:sfdb_animation.obj
 0002:000040c8       ??_C@_09KMHJEGJ@chartName?$AA@ 000000018003d0c8     sfc_debug:sfdb_animation.obj
 0002:000040d4       ??_C@_06OOECHJN@charts?$AA@ 000000018003d0d4     sfc_debug:sfdb_animation.obj
 0002:000040e0       ??_C@_0O@LOMGGENK@machineNumber?$AA@ 000000018003d0e0     sfc_debug:sfdb_animation.obj
 0002:000040f0       ??_C@_09OOJCKABH@machineId?$AA@ 000000018003d0f0     sfc_debug:sfdb_animation.obj
 0002:00004100       ??_C@_0M@OCOCCFP@machineName?$AA@ 000000018003d100     sfc_debug:sfdb_animation.obj
 0002:00004110       ??_C@_0CN@CCJEMGOM@?$CIinstance?9?$DOsm?4statePack?$CJ?4length?$DO@ 000000018003d110     sfc_debug:sfdb_animation.obj
 0002:00004140       ??_C@_0DC@DKAJIDPA@?$CIinstance?9?$DOsm?4transitionPack?$CJ?4le@ 000000018003d140     sfc_debug:sfdb_animation.obj
 0002:00004178       ??_C@_0BB@EGGLBLCL@sfdb_animation?4c?$AA@ 000000018003d178     sfc_debug:sfdb_animation.obj
 0002:00004190       ??_C@_0BB@GDGPIGLB@cv_model_enabled?$AA@ 000000018003d190     sfc_debug:cv_sfinterface.obj
 0002:000041a8       ??_C@_09DDDNMFIJ@get_param?$AA@ 000000018003d1a8     sfc_debug:cv_sfinterface.obj
 0002:000041b8       ??_C@_0L@BODNDPN@CoverageId?$AA@ 000000018003d1b8     sfc_debug:cv_sfinterface.obj
 0002:000041c8       __real@4008000000000000    000000018003d1c8     sfc_debug:cv_sfinterface.obj
 0002:000041d0       ??_C@_05IEGMLJMJ@exist?$AA@ 000000018003d1d0     sfc_debug:cv_sfinterface.obj
 0002:000041d8       ??_C@_02DDEKINOE@cv?$AA@   000000018003d1d8     sfc_debug:cv_sfinterface.obj
 0002:000041e0       __real@4082c00000000000    000000018003d1e0     sfc_debug:cv_sfinterface.obj
 0002:000041e8       ??_C@_0O@HGNEKHDK@MatlabVersion?$AA@ 000000018003d1e8     sfc_debug:cv_sfinterface.obj
 0002:000041f8       ??_C@_0M@IIAIMKFO@status?5?$DN?$DN?50?$AA@ 000000018003d1f8     sfc_debug:cv_sfinterface.obj
 0002:00004208       ??_C@_0BB@ENEMAMMG@cv_sfinterface?4c?$AA@ 000000018003d208     sfc_debug:cv_sfinterface.obj
 0002:00004220       ??_C@_0CC@JMPFGLON@mxGetNumberOfElements?$CIplhs?$FL3?$FN?$CJ?$DN?$DN@ 000000018003d220     sfc_debug:cv_sfinterface.obj
 0002:00004248       ??_C@_0P@MCDOIOOF@plhs?$FL3?$FN?5?$CB?$DNNULL?$AA@ 000000018003d248     sfc_debug:cv_sfinterface.obj
 0002:00004258       ??_C@_0P@HAMLCBNF@len?$DM?$DNdataCount?$AA@ 000000018003d258     sfc_debug:cv_sfinterface.obj
 0002:00004268       ??_C@_0BA@FJOAHKLL@len?$DN?$DNtransCount?$AA@ 000000018003d268     sfc_debug:cv_sfinterface.obj
 0002:00004278       ??_C@_0BA@JELAJLGI@len?$DN?$DNstateCount?$AA@ 000000018003d278     sfc_debug:cv_sfinterface.obj
 0002:00004288       ??_C@_0BC@NEFBEIHN@InitChartInstance?$AA@ 000000018003d288     sfc_debug:cv_sfinterface.obj
 0002:0000429c       ??_C@_04MMALOABH@cvsf?$AA@ 000000018003d29c     sfc_debug:cv_sfinterface.obj
 0002:000042a8       ??_C@_0L@GIEKKEHF@InitScript?$AA@ 000000018003d2a8     sfc_debug:cv_sfinterface.obj
 0002:000042b8       ??_C@_08DNDOONPK@sigrange?$AA@ 000000018003d2b8     sfc_debug:cv_sfinterface.obj
 0002:000042c8       ??_C@_0O@KGBGEHIN@MetricEnabled?$AA@ 000000018003d2c8     sfc_debug:cv_sfinterface.obj
 0002:000042d8       ??_C@_0BC@NKPEPJDJ@chart?9?$DOchartId?$CB?$DN0?$AA@ 000000018003d2d8     sfc_debug:cv_sfinterface.obj
 0002:000042ec       ??_C@_02GMHACPFF@?$CFu?$AA@ 000000018003d2ec     sfc_debug:sfdb_data_browse.obj
 0002:000042f0       ??_C@_02NJPGOMH@?$CFf?$AA@ 000000018003d2f0     sfc_debug:sfdb_data_browse.obj
 0002:000042f8       ??_C@_0BD@PCGIEHBF@sfdb_data_browse?4c?$AA@ 000000018003d2f8     sfc_debug:sfdb_data_browse.obj
 0002:00004310       __real@c2a2309ce53fffcd    000000018003d310     sfc_debug:sfdb_data_browse.obj
 0002:00004318       ??_C@_0CK@JKBFHDPL@result?5?$DN?5mxCreateDoubleMatrix?$CI1?0@ 000000018003d318     sfc_debug:sfdb_data_browse.obj
 0002:00004348       ??_C@_0DK@FJDNFCNK@result?5?$DN?5mxCreateDoubleMatrix?$CI1?0@ 000000018003d348     sfc_debug:sfdb_data_browse.obj
 0002:00004388       ??_C@_0DL@OAKPHGJG@result?5?$DN?5mxCreateDoubleMatrix?$CI1?0@ 000000018003d388     sfc_debug:sfdb_data_browse.obj
 0002:000043c8       ??_C@_0N@MNGHGLAH@isFixedPoint?$AA@ 000000018003d3c8     sfc_debug:sfdb_data_browse.obj
 0002:000043d8       ??_C@_06DLEPGFEF@format?$AA@ 000000018003d3d8     sfc_debug:sfdb_data_browse.obj
 0002:000043e0       ??_C@_05MFEJDJP@value?$AA@ 000000018003d3e0     sfc_debug:sfdb_data_browse.obj
 0002:000043e8       ??_C@_05DCCHDMEJ@scope?$AA@ 000000018003d3e8     sfc_debug:sfdb_data_browse.obj
 0002:000043f0       ??_C@_02EGCJHIOB@id?$AA@   000000018003d3f0     sfc_debug:sfdb_data_browse.obj
 0002:000043f4       ??_C@_04PJOLNDGD@data?$AA@ 000000018003d3f4     sfc_debug:sfdb_data_browse.obj
 0002:000043fc       ??_C@_06LIBBAANI@len?$DN?$DN1?$AA@ 000000018003d3fc     sfc_debug:sfdb_handle_management.obj
 0002:00004408       ??_C@_0BJ@IEEBKHME@sfdb_handle_management?4c?$AA@ 000000018003d408     sfc_debug:sfdb_handle_management.obj
 0002:00004424       ??_C@_06NCGDPKCC@handle?$AA@ 000000018003d424     sfc_debug:sfdb_handle_management.obj
 0002:00004430       ??_C@_0BP@NAIIDBEE@parentObjectType?$DN?$DNCHART_OBJECT?$AA@ 000000018003d430     sfc_debug:sfdb_handle_management.obj
 0002:00004450       ??_C@_0BD@JOOOIBOE@get_machine_option?$AA@ 000000018003d450     sfc_debug:sfdb_handle_management.obj
 0002:00004468       ??_C@_0P@KGLBOIAN@get_machine_id?$AA@ 000000018003d468     sfc_debug:sfdb_handle_management.obj
 0002:00004478       ??_C@_0N@OBHOGINE@get_chart_id?$AA@ 000000018003d478     sfc_debug:sfdb_handle_management.obj
 0002:00004488       ??_C@_0BD@DICPGEAM@register_sfunction?$AA@ 000000018003d488     sfc_debug:sfdb_handle_management.obj
 0002:000044a0       ??_C@_0BF@FENDCECP@get_chart_visibility?$AA@ 000000018003d4a0     sfc_debug:sfdb_handle_management.obj
 0002:000044b8       ??_C@_0BM@FDGIEMLG@objectProperties?9?$DOlength?$DN?$DN0?$AA@ 000000018003d4b8     sfc_debug:sfdb_handle_management.obj
 0002:000044d8       ??_C@_0CE@KBPIEDGG@?$CI?$CI?$CKobjectProperties?$CJ?$CJ?4length?$DOnum@ 000000018003d4d8     sfc_debug:sfdb_handle_management.obj
 0002:00004500       ??_C@_0CA@HFGDFECP@len?5?$DN?$DN?5objectProperties?9?$DOlength?$AA@ 000000018003d500     sfc_debug:sfdb_handle_management.obj
 0002:00004520       ??_C@_0P@BHPLCHGJ@get_object_ids?$AA@ 000000018003d520     sfc_debug:sfdb_handle_management.obj
 0002:00004530       ??_C@_0BK@IFFOLHLE@objectProperties?9?$DOsize?$DN?$DN0?$AA@ 000000018003d530     sfc_debug:sfdb_handle_management.obj
 0002:00004550       ??_C@_0BO@GFLPGHHM@len?5?$DO?$DN?5objectProperties?9?$DOsize?$AA@ 000000018003d550     sfc_debug:sfdb_handle_management.obj
 0002:00004570       ??_C@_05GFHEIIDD@event?$AA@ 000000018003d570     sfc_debug:sfdb_handle_management.obj
 0002:00004578       ??_C@_0M@BFOKCNLA@debug?4watch?$AA@ 000000018003d578     sfc_debug:sfdb_handle_management.obj
 0002:00004588       ??_C@_0CE@OILCPIFA@machine?4debug?4disableAllBreakpoi@ 000000018003d588     sfc_debug:sfdb_handle_management.obj
 0002:000045b0       ??_C@_0DA@JMDEGBBH@machine?4debug?4runTimeCheck?4state@ 000000018003d5b0     sfc_debug:sfdb_handle_management.obj
 0002:000045e0       ??_C@_0CP@IPHIMGFA@machine?4debug?4runTimeCheck?4trans@ 000000018003d5e0     sfc_debug:sfdb_handle_management.obj
 0002:00004610       ??_C@_0CL@LENOAAKD@machine?4debug?4runTimeCheck?4dataR@ 000000018003d610     sfc_debug:sfdb_handle_management.obj
 0002:00004640       ??_C@_0CK@MBMAMLGE@machine?4debug?4runTimeCheck?4cycle@ 000000018003d640     sfc_debug:sfdb_handle_management.obj
 0002:00004670       ??_C@_0CA@EGLALCO@machine?4debug?4animation?4enabled?$AA@ 000000018003d670     sfc_debug:sfdb_handle_management.obj
 0002:00004690       ??_C@_0L@KGLELNDP@transition?$AA@ 000000018003d690     sfc_debug:sfdb_handle_management.obj
 0002:0000469c       ??_C@_06JKPEPHBG@dst?4id?$AA@ 000000018003d69c     sfc_debug:sfdb_handle_management.obj
 0002:000046a4       ??_C@_05HDBKIDE@state?$AA@ 000000018003d6a4     sfc_debug:sfdb_handle_management.obj
 0002:000046b0       ??_C@_0EG@MFIKDIJB@strlen?$CImachineName?$CJ?5?$DM?5sizeof?$CIdeb@ 000000018003d6b0     sfc_debug:sfdb_handle_management.obj
 0002:000046f8       ??_C@_0BM@DEONCIBN@stackPtr?5?$DN?$DN?5symScope?9?$DOstack?$AA@ 000000018003d6f8     sfc_debug:sfdb_symbol_scope.obj
 0002:00004718       ??_C@_0BE@PIKAOBFK@sfdb_symbol_scope?4c?$AA@ 000000018003d718     sfc_debug:sfdb_symbol_scope.obj
 0002:00004730       ??_C@_0BP@MJGDIBPE@symScope?9?$DOcurrentScope?5?$CB?$DN?5NULL?$AA@ 000000018003d730     sfc_debug:sfdb_symbol_scope.obj
 0002:00004750       ??_C@_0BP@OCHHKFJA@symScope?9?$DOcurrentScope?5?$DN?$DN?5NULL?$AA@ 000000018003d750     sfc_debug:sfdb_symbol_scope.obj
 0002:00004770       ??_C@_0BM@KCIKANPA@symScope?9?$DOstack?5?$DN?$DN?5stackPtr?$AA@ 000000018003d770     sfc_debug:sfdb_symbol_scope.obj
 0002:00004790       ??_C@_0DK@NCABFGD@symScope?9?$DOcurrentScope?5?$CB?$DN?5NULL?5?$CG@ 000000018003d790     sfc_debug:sfdb_symbol_scope.obj
 0002:000047d0       ??_C@_0DL@LDAGNOEE@currScope?9?$DOsymbolTable?4count?5?$DM?5c@ 000000018003d7d0     sfc_debug:sfdb_symbol_scope.obj
 0002:00004810       ??_C@_0BK@PHCKFGOO@numDims?5?$DM?$DN?5MAX_DIMENSIONS?$AA@ 000000018003d810     sfc_debug:sfdb_symbol_scope.obj
 0002:00004830       ??_C@_0EE@CLCFNFKP@Warning?3?5Can?8t?5display?5value?4?5Nu@ 000000018003d830     sfc_debug:sfdb_symbol_scope.obj
 0002:00004878       ??_C@_0BB@NPDHFBEP@valuePtr?5?$CB?$DN?5NULL?$AA@ 000000018003d878     sfc_debug:sfdb_symbol_scope.obj
 0002:00004890       ??_C@_0O@CHHKIHJE@chart?5?$CB?$DN?5NULL?$AA@ 000000018003d890     sfc_debug:sfdb_symbol_scope.obj
 0002:000048a0       ??_C@_0CB@PFGINMAC@dataInfo?5?$CG?$CG?5data?5?$CG?$CG?5st?5?$CG?$CG?5i?5?$DO?$DN?50@ 000000018003d8a0     sfc_debug:sfdb_symbol_scope.obj
 0002:000048d0       ??_C@_0PC@ENOLANEC@Cannot?5change?5value?5of?5?8?$CFs?8?5at?5d@ 000000018003d8d0     sfc_debug:sfdb_symbol_scope.obj
 0002:000049c4       ??_C@_02PINLEBJB@fi?$AA@   000000018003d9c4     sfc_debug:sfdb_symbol_scope.obj
 0002:000049c8       ??_C@_06FDANFAAP@sim2fi?$AA@ 000000018003d9c8     sfc_debug:sfdb_symbol_scope.obj
 0002:000049d0       ??_C@_0N@PGGMJAFA@Out?5of?5Scope?$AA@ 000000018003d9d0     sfc_debug:sfdb_symbol_scope.obj
 0002:000049e0       ??_C@_0BF@KFJKGDMO@Unrecognized?5symbol?4?$AA@ 000000018003d9e0     sfc_debug:sfdb_symbol_scope.obj
 0002:000049f8       ??_C@_0L@INJGJGAM@?5?$CIcomplex?$CJ?$AA@ 000000018003d9f8     sfc_debug:sfdb_symbol_scope.obj
 0002:00004a08       ??_C@_0O@MHGLJPE@fixpt?5?$CI?$CFs?5?$CFs?$CJ?$AA@ 000000018003da08     sfc_debug:sfdb_symbol_scope.obj
 0002:00004a18       ??_C@_08FFKICJMO@?$CFs?$CL?$CF?416g?$AA@ 000000018003da18     sfc_debug:sfdb_symbol_scope.obj
 0002:00004a24       ??_C@_02EPPPECEI@SI?$AA@   000000018003da24     sfc_debug:sfdb_symbol_scope.obj
 0002:00004a28       ??_C@_09LKFGHFHF@?$CFs?$CI2?$FO?$CFd?$CJ?$CK?$AA@ 000000018003da28     sfc_debug:sfdb_symbol_scope.obj
 0002:00004a34       ??_C@_06KJECHFDK@?$CF?416g?$CK?$AA@ 000000018003da34     sfc_debug:sfdb_symbol_scope.obj
 0002:00004a3c       ??_C@_02IJPJFKDF@ml?$AA@   000000018003da3c     sfc_debug:sfdb_symbol_scope.obj
 0002:00004a40       ??_C@_0O@NJOJHIHO@logical?5array?$AA@ 000000018003da40     sfc_debug:sfdb_symbol_scope.obj
 0002:00004a50       ??_C@_0L@MDMKKENH@char?5array?$AA@ 000000018003da50     sfc_debug:sfdb_symbol_scope.obj
 0002:00004a60       ??_C@_0N@DGCGENML@uint32?5array?$AA@ 000000018003da60     sfc_debug:sfdb_symbol_scope.obj
 0002:00004a70       ??_C@_0M@OFFMACLB@int32?5array?$AA@ 000000018003da70     sfc_debug:sfdb_symbol_scope.obj
 0002:00004a80       ??_C@_0N@JMJKGLLH@uint16?5array?$AA@ 000000018003da80     sfc_debug:sfdb_symbol_scope.obj
 0002:00004a90       ??_C@_0M@EPOACEMN@int16?5array?$AA@ 000000018003da90     sfc_debug:sfdb_symbol_scope.obj
 0002:00004aa0       ??_C@_0M@NOMKNEGI@uint8?5array?$AA@ 000000018003daa0     sfc_debug:sfdb_symbol_scope.obj
 0002:00004ab0       ??_C@_0L@HCHBFFAP@int8?5array?$AA@ 000000018003dab0     sfc_debug:sfdb_symbol_scope.obj
 0002:00004ac0       ??_C@_0N@KIFCNMIF@single?5array?$AA@ 000000018003dac0     sfc_debug:sfdb_symbol_scope.obj
 0002:00004ad0       ??_C@_0N@OFOFFBCM@double?5array?$AA@ 000000018003dad0     sfc_debug:sfdb_symbol_scope.obj
 0002:00004ae0       ??_C@_04BIAHPGJI@?$CFdx1?$AA@ 000000018003dae0     sfc_debug:sfdb_symbol_scope.obj
 0002:00004ae8       ??_C@_04CADIJHHA@?$CFd?9D?$AA@ 000000018003dae8     sfc_debug:sfdb_symbol_scope.obj
 0002:00004af0       ??_C@_05JIPKJPMI@?$CFs?$CFdx?$AA@ 000000018003daf0     sfc_debug:sfdb_symbol_scope.obj
 0002:00004af8       ??_C@_0BH@GLACFBLP@?5?$CIvariable?5sized?3?5MAX?5?$AA@ 000000018003daf8     sfc_debug:sfdb_symbol_scope.obj
 0002:00004b10       ??_C@_07CIFAGBMG@unknown?$AA@ 000000018003db10     sfc_debug:sfdb_symbol_scope.obj
 0002:00004b18       ??_C@_05ENKANFLO@class?$AA@ 000000018003db18     sfc_debug:sfdb_symbol_scope.obj
 0002:00004b20       ??_C@_05FBJAGGIG@bytes?$AA@ 000000018003db20     sfc_debug:sfdb_symbol_scope.obj
 0002:00004b28       ??_C@_04MEMAJGDJ@name?$AA@ 000000018003db28     sfc_debug:sfdb_symbol_scope.obj
 0002:00004b30       ??_C@_0CF@NELOECCL@coverageVector?9?$DOlength?$DOcoverageI@ 000000018003db30     sfc_debug:sfdb_coverage.obj
 0002:00004b58       ??_C@_0BA@CBMBNBFB@sfdb_coverage?4c?$AA@ 000000018003db58     sfc_debug:sfdb_coverage.obj
 0002:00004b68       ??_C@_0DN@FAEHHEAM@?$CIscript?9?$DObm?4breakpoints?$CJ?4length?$DO@ 000000018003db68     sfc_debug:sfdb_breakpoints.obj
 0002:00004ba8       ??_C@_0BD@BABBLJFB@sfdb_breakpoints?4c?$AA@ 000000018003dba8     sfc_debug:sfdb_breakpoints.obj
 0002:00004bc0       ??_C@_0P@IGHKOFID@get_script_bps?$AA@ 000000018003dbc0     sfc_debug:sfdb_breakpoints.obj
 0002:00004bd0       ??_C@_0BA@ICOJJJDD@get_all_scripts?$AA@ 000000018003dbd0     sfc_debug:sfdb_breakpoints.obj
 0002:00004be0       ??_C@_0EI@EDDFBGGP@?$CIunsigned?5int?$CJ?$CImxGetM?$CIplhs?$FL0?$FN?$CJ?5?$CK@ 000000018003dbe0     sfc_debug:sfdb_breakpoints.obj
 0002:00004c28       ??_C@_0BE@PNADEEOB@get_eml_line_counts?$AA@ 000000018003dc28     sfc_debug:sfdb_breakpoints.obj
 0002:00004c40       ??_C@_0CC@JPCLBDPC@mxGetNumberOfElements?$CIplhs?$FL0?$FN?$CJ?$DN?$DN@ 000000018003dc40     sfc_debug:sfdb_breakpoints.obj
 0002:00004c68       ??_C@_0P@EHJHKHLL@get_global_bps?$AA@ 000000018003dc68     sfc_debug:sfdb_breakpoints.obj
 0002:00004c78       ??_C@_0CE@NADCJCF@?$CIchart?9?$DObm?4chart?$FLtagType?$FN?$CJ?4lengt@ 000000018003dc78     sfc_debug:sfdb_breakpoints.obj
 0002:00004ca0       ??_C@_0CP@JOFCMAIP@?$CIchart?9?$DObm?4state?$FLtagType?$FN?$CJ?4lengt@ 000000018003dca0     sfc_debug:sfdb_breakpoints.obj
 0002:00004cd0       ??_C@_0DE@GNPGALGC@?$CIchart?9?$DObm?4transition?$FLtagType?$FN?$CJ?4@ 000000018003dcd0     sfc_debug:sfdb_breakpoints.obj
 0002:00004d08       ??_C@_0DB@PCFIPMMH@?$CImachine?9?$DObm?4event?$FLtagType?$FN?$CJ?4len@ 000000018003dd08     sfc_debug:sfdb_breakpoints.obj
 0002:00004d40       ??_C@_0CP@FENPPAOI@?$CIchart?9?$DObm?4event?$FLtagType?$FN?$CJ?4lengt@ 000000018003dd40     sfc_debug:sfdb_breakpoints.obj
 0002:00004d70       ??_C@_0CH@EKAIFOIL@numCols?5?$DN?$DN?5TOTAL_EVENT_BREAKPOIN@ 000000018003dd70     sfc_debug:sfdb_breakpoints.obj
 0002:00004d98       ??_C@_0CA@BECONEOF@numRows?5?$DN?$DN?5machine?9?$DOevent?4count?$AA@ 000000018003dd98     sfc_debug:sfdb_breakpoints.obj
 0002:00004db8       ??_C@_07HCEBIAFG@get_bps?$AA@ 000000018003ddb8     sfc_debug:sfdb_breakpoints.obj
 0002:00004dc0       ??_C@_0BI@LFGGAIIJ@?$CIbps?$CJ?4length?$DObreakPoint?$AA@ 000000018003ddc0     sfc_debug:sfdb_breakpoints.obj
 0002:00004dd8       ??_C@_0N@CNOINHPD@numCols?5?$DN?$DN?51?$AA@ 000000018003ddd8     sfc_debug:sfdb_breakpoints.obj
 0002:00004de8       ??_C@_0M@NNPJEEAE@get_eml_bps?$AA@ 000000018003dde8     sfc_debug:sfdb_breakpoints.obj
 0002:00004df8       ??_C@_0BO@CDPAPHEM@numRows?5?$DN?$DN?5chart?9?$DOevent?4count?$AA@ 000000018003ddf8     sfc_debug:sfdb_breakpoints.obj
 0002:00004e18       ??_C@_0CM@FFJFHNEO@numCols?5?$DN?$DN?5TOTAL_TRANSITION_BREA@ 000000018003de18     sfc_debug:sfdb_breakpoints.obj
 0002:00004e48       ??_C@_0CD@IOIMPEBN@numRows?5?$DN?$DN?5chart?9?$DOtransition?4cou@ 000000018003de48     sfc_debug:sfdb_breakpoints.obj
 0002:00004e70       ??_C@_0CH@JEIBGOOJ@numCols?5?$DN?$DN?5TOTAL_STATE_BREAKPOIN@ 000000018003de70     sfc_debug:sfdb_breakpoints.obj
 0002:00004e98       ??_C@_0BO@BIKNFPLB@numRows?5?$DN?$DN?5chart?9?$DOstate?4count?$AA@ 000000018003de98     sfc_debug:sfdb_breakpoints.obj
 0002:00004eb8       ??_C@_0CH@BNLENKGD@numCols?5?$DN?$DN?5TOTAL_CHART_BREAKPOIN@ 000000018003deb8     sfc_debug:sfdb_breakpoints.obj
 0002:00004ee0       ??_C@_0N@MEFFBAFI@numRows?5?$DN?$DN?51?$AA@ 000000018003dee0     sfc_debug:sfdb_breakpoints.obj
 0002:00004ef0       ??_C@_0BJ@BLHBHILO@sfdb_state_consistency?4c?$AA@ 000000018003def0     sfc_debug:sfdb_state_consistency.obj
 0002:00004f10       ??_C@_09LHFAMEGK@errorType?$AA@ 000000018003df10     sfc_debug:sfdb_state_consistency.obj
 0002:00004f20       ??_C@_08DLAIKNBK@objectId?$AA@ 000000018003df20     sfc_debug:sfdb_state_consistency.obj
 0002:00004f30       ??_C@_0L@GODCDFEF@objectType?$AA@ 000000018003df30     sfc_debug:sfdb_state_consistency.obj
 0002:00004f40       ??_C@_0L@CCGENCKP@errorStack?$AA@ 000000018003df40     sfc_debug:sfdb_state_consistency.obj
 0002:00004f50       ??_C@_0O@PPHMCEKO@cycleDetected?$AA@ 000000018003df50     sfc_debug:sfdb_call_stack.obj
 0002:00004f60       ??_C@_0N@MGKMJLEK@cycleStarted?$AA@ 000000018003df60     sfc_debug:sfdb_call_stack.obj
 0002:00004f70       ??_C@_07BNCILGOA@tagType?$AA@ 000000018003df70     sfc_debug:sfdb_call_stack.obj
 0002:00004f78       ??_C@_0L@POKIGEMP@eventScope?$AA@ 000000018003df78     sfc_debug:sfdb_call_stack.obj
 0002:00004f88       ??_C@_0M@LKJJPLIC@traceVector?$AA@ 000000018003df88     sfc_debug:sfdb_call_stack.obj
 0002:00004fa0       ??_C@_0EC@MGCLADPL@?$CIinstance?9?$DOcycleDetection?4transi@ 000000018003dfa0     sfc_debug:sfdb_cycle_detection.obj
 0002:00004fe8       ??_C@_0BH@ELCAAKDD@sfdb_cycle_detection?4c?$AA@ 000000018003dfe8     sfc_debug:sfdb_cycle_detection.obj
 0002:00005000       ??_C@_0O@PICIAFIK@newNode?$CB?$DNNULL?$AA@ 000000018003e000     sfc_debug:sfdb_cycle_detection.obj
 0002:00005010       _pRawDllMain               000000018003e010     MSVCRT:crtdll.obj
 0002:00005010       _pDefaultRawDllMain        000000018003e010     MSVCRT:crtdll.obj
 0002:00005028       ?ProcessDetach@NativeDll@<CrtImplementationDetails>@@0IB 000000018003e028     MSVCRT:tncleanup.obj
 0002:0000502c       ?ProcessAttach@NativeDll@<CrtImplementationDetails>@@0IB 000000018003e02c     MSVCRT:tncleanup.obj
 0002:00005030       ?ThreadAttach@NativeDll@<CrtImplementationDetails>@@0IB 000000018003e030     MSVCRT:tncleanup.obj
 0002:00005034       ?ThreadDetach@NativeDll@<CrtImplementationDetails>@@0IB 000000018003e034     MSVCRT:tncleanup.obj
 0002:00005038       ?ProcessVerifier@NativeDll@<CrtImplementationDetails>@@0IB 000000018003e038     MSVCRT:tncleanup.obj
 0002:00005040       __rtc_iaa                  000000018003e040     MSVCRT:_initsect_.obj
 0002:00005048       __rtc_izz                  000000018003e048     MSVCRT:_initsect_.obj
 0002:00005050       __rtc_taa                  000000018003e050     MSVCRT:_initsect_.obj
 0002:00005058       __rtc_tzz                  000000018003e058     MSVCRT:_initsect_.obj
 0002:00008fe4       __IMPORT_DESCRIPTOR_libmx  0000000180041fe4     libmx:libmx.dll
 0002:00008ff8       __IMPORT_DESCRIPTOR_libmex 0000000180041ff8     libmex:libmex.dll
 0002:0000900c       __IMPORT_DESCRIPTOR_libfixedpoint 000000018004200c     libfixedpoint:libfixedpoint.dll
 0002:00009020       __IMPORT_DESCRIPTOR_libut  0000000180042020     libut:libut.dll
 0002:00009034       __IMPORT_DESCRIPTOR_libmwmathutil 0000000180042034     libmwmathutil:libmwmathutil.dll
 0002:00009048       __IMPORT_DESCRIPTOR_libemlrt 0000000180042048     libemlrt:libemlrt.dll
 0002:0000905c       __IMPORT_DESCRIPTOR_MSVCR100 000000018004205c     MSVCRT:MSVCR100.dll
 0002:00009070       __IMPORT_DESCRIPTOR_KERNEL32 0000000180042070     kernel32:KERNEL32.dll
 0002:00009084       __NULL_IMPORT_DESCRIPTOR   0000000180042084     libmx:libmx.dll
 0003:000011c0       DYNAMIC_DIMENSION          00000001800451c0     fuzzy_sliding_pendubot_simulate_22_5_2017_sfun_registry.obj
 0003:00001f10       emlrtContextGlobal         0000000180045f10     sfc_mex:sfc_mex.obj
 0003:00001fb0       __security_cookie          0000000180045fb0     MSVCRT:gs_cookie.obj
 0003:00001fb8       __security_cookie_complement 0000000180045fb8     MSVCRT:gs_cookie.obj
 0003:00001fc0       _fltused                   0000000180045fc0     MSVCRT:dllsupp.obj
 0003:00001fd0       __native_dllmain_reason    0000000180045fd0     MSVCRT:natstart.obj
 0003:00001fd4       __native_vcclrit_reason    0000000180045fd4     MSVCRT:natstart.obj
 0003:000031f8       emlrtRootTLSGlobal         00000001800471f8     sfc_mex:sfc_mex.obj
 0003:000034e8       sSFDebuggerInitialized     00000001800474e8     sfc_debug:sfcdebug.obj
 0003:000045c0       ?__type_info_root_node@@3U__type_info_node@@A 00000001800485c0     MSVCRT:tncleanup.obj
 0003:000045d0       _sfTime_                   00000001800485d0     <common>
 0003:000045d8       _fuzzy_sliding_pendubot_simulate_22_5_2017MachineNumber_ 00000001800485d8     <common>
 0003:000045e0       gSfComplexDataTypeOffsets  00000001800485e0     <common>
 0003:00004640       gSfDataTypeOffsets         0000000180048640     <common>
 0003:00004688       gMaskBits                  0000000180048688     <common>
 0003:00004690       __native_startup_state     0000000180048690     <common>
 0003:00004698       __native_startup_lock      0000000180048698     <common>
 0003:000046a0       __onexitend                00000001800486a0     <common>
 0003:000046a8       __onexitbegin              00000001800486a8     <common>
 0003:000046b0       __dyn_tls_init_callback    00000001800486b0     <common>

 entry point at        0001:00037110

 Static symbols

 0001:000004b0       c2_info_helper             00000001800014b0 f   c2_fuzzy_sliding_pendubot_simulate_22_5_2017.obj
 0001:000017e0       get_sim_state_c2_fuzzy_sliding_pendubot_simulate_22_5_2017 00000001800027e0 f   c2_fuzzy_sliding_pendubot_simulate_22_5_2017.obj
 0001:00001a40       sf_get_sim_state_info_c2_fuzzy_sliding_pendubot_simulate_22_5_2017 0000000180002a40 f   c2_fuzzy_sliding_pendubot_simulate_22_5_2017.obj
 0001:00001c20       set_sim_state_c2_fuzzy_sliding_pendubot_simulate_22_5_2017 0000000180002c20 f   c2_fuzzy_sliding_pendubot_simulate_22_5_2017.obj
 0001:00001d40       c2_update_debugger_state_c2_fuzzy_sliding_pendubot_simulate_22_5 0000000180002d40 f   c2_fuzzy_sliding_pendubot_simulate_22_5_2017.obj
 0001:00001d50       c2_emlrt_marshallIn        0000000180002d50 f   c2_fuzzy_sliding_pendubot_simulate_22_5_2017.obj
 0001:00001dc0       c2_b_emlrt_marshallIn      0000000180002dc0 f   c2_fuzzy_sliding_pendubot_simulate_22_5_2017.obj
 0001:00001e50       c2_d_emlrt_marshallIn      0000000180002e50 f   c2_fuzzy_sliding_pendubot_simulate_22_5_2017.obj
 0001:00001eb0       c2_e_emlrt_marshallIn      0000000180002eb0 f   c2_fuzzy_sliding_pendubot_simulate_22_5_2017.obj
 0001:00001fb0       mdlProcessParameters_c2_fuzzy_sliding_pendubot_simulate_22_5_2017 0000000180002fb0 f   c2_fuzzy_sliding_pendubot_simulate_22_5_2017.obj
 0001:00002070       initialize_params_c2_fuzzy_sliding_pendubot_simulate_22_5_2017 0000000180003070 f   c2_fuzzy_sliding_pendubot_simulate_22_5_2017.obj
 0001:00002080       mdlSetWorkWidths_c2_fuzzy_sliding_pendubot_simulate_22_5_2017 0000000180003080 f   c2_fuzzy_sliding_pendubot_simulate_22_5_2017.obj
 0001:00002560       sf_get_instance_specialization 0000000180003560 f   c2_fuzzy_sliding_pendubot_simulate_22_5_2017.obj
 0001:00002570       mdlStart_c2_fuzzy_sliding_pendubot_simulate_22_5_2017 0000000180003570 f   c2_fuzzy_sliding_pendubot_simulate_22_5_2017.obj
 0001:00002770       init_dsm_address_info      0000000180003770 f   c2_fuzzy_sliding_pendubot_simulate_22_5_2017.obj
 0001:00002780       chart_debug_initialization 0000000180003780 f   c2_fuzzy_sliding_pendubot_simulate_22_5_2017.obj
 0001:000034e0       init_script_number_translation 00000001800044e0 f   c2_fuzzy_sliding_pendubot_simulate_22_5_2017.obj
 0001:000034f0       c2_sf_marshallOut          00000001800044f0 f   c2_fuzzy_sliding_pendubot_simulate_22_5_2017.obj
 0001:000035a0       c2_sf_marshallIn           00000001800045a0 f   c2_fuzzy_sliding_pendubot_simulate_22_5_2017.obj
 0001:00003640       sf_opaque_initialize_c2_fuzzy_sliding_pendubot_simulate_22_5_2017 0000000180004640 f   c2_fuzzy_sliding_pendubot_simulate_22_5_2017.obj
 0001:00003680       initialize_c2_fuzzy_sliding_pendubot_simulate_22_5_2017 0000000180004680 f   c2_fuzzy_sliding_pendubot_simulate_22_5_2017.obj
 0001:000036d0       sf_opaque_enable_c2_fuzzy_sliding_pendubot_simulate_22_5_2017 00000001800046d0 f   c2_fuzzy_sliding_pendubot_simulate_22_5_2017.obj
 0001:000036f0       enable_c2_fuzzy_sliding_pendubot_simulate_22_5_2017 00000001800046f0 f   c2_fuzzy_sliding_pendubot_simulate_22_5_2017.obj
 0001:00003720       sf_opaque_disable_c2_fuzzy_sliding_pendubot_simulate_22_5_2017 0000000180004720 f   c2_fuzzy_sliding_pendubot_simulate_22_5_2017.obj
 0001:00003740       disable_c2_fuzzy_sliding_pendubot_simulate_22_5_2017 0000000180004740 f   c2_fuzzy_sliding_pendubot_simulate_22_5_2017.obj
 0001:00003770       sf_opaque_gateway_c2_fuzzy_sliding_pendubot_simulate_22_5_2017 0000000180004770 f   c2_fuzzy_sliding_pendubot_simulate_22_5_2017.obj
 0001:00003790       sf_c2_fuzzy_sliding_pendubot_simulate_22_5_2017 0000000180004790 f   c2_fuzzy_sliding_pendubot_simulate_22_5_2017.obj
 0001:00003b10       c2_chartstep_c2_fuzzy_sliding_pendubot_simulate_22_5_2017 0000000180004b10 f   c2_fuzzy_sliding_pendubot_simulate_22_5_2017.obj
 0001:00004f30       c2_mpower                  0000000180005f30 f   c2_fuzzy_sliding_pendubot_simulate_22_5_2017.obj
 0001:00004f90       c2_eml_scalar_eg           0000000180005f90 f   c2_fuzzy_sliding_pendubot_simulate_22_5_2017.obj
 0001:00004fa0       sf_opaque_get_sim_state_c2_fuzzy_sliding_pendubot_simulate_22_5_2017 0000000180005fa0 f   c2_fuzzy_sliding_pendubot_simulate_22_5_2017.obj
 0001:00004fc0       sf_opaque_set_sim_state_c2_fuzzy_sliding_pendubot_simulate_22_5_2017 0000000180005fc0 f   c2_fuzzy_sliding_pendubot_simulate_22_5_2017.obj
 0001:00004ff0       sf_opaque_terminate_c2_fuzzy_sliding_pendubot_simulate_22_5_2017 0000000180005ff0 f   c2_fuzzy_sliding_pendubot_simulate_22_5_2017.obj
 0001:00005070       finalize_c2_fuzzy_sliding_pendubot_simulate_22_5_2017 0000000180006070 f   c2_fuzzy_sliding_pendubot_simulate_22_5_2017.obj
 0001:00005080       sf_opaque_init_subchart_simstructs 0000000180006080 f   c2_fuzzy_sliding_pendubot_simulate_22_5_2017.obj
 0001:000050a0       initSimStructsc2_fuzzy_sliding_pendubot_simulate_22_5_2017 00000001800060a0 f   c2_fuzzy_sliding_pendubot_simulate_22_5_2017.obj
 0001:000050b0       mdlRTW_c2_fuzzy_sliding_pendubot_simulate_22_5_2017 00000001800060b0 f   c2_fuzzy_sliding_pendubot_simulate_22_5_2017.obj
 0001:00006ca0       _ssFatalError              0000000180007ca0 f   fuzzy_sliding_pendubot_simulate_22_5_2017_sfun_registry.obj
 0001:00009d50       ProcessMexSfunctionCmdLineCall 000000018000ad50 f   fuzzy_sliding_pendubot_simulate_22_5_2017_sfun_registry.obj
 0001:00009e40       mdlGetTimeOfNextVarHit     000000018000ae40 f   fuzzy_sliding_pendubot_simulate_22_5_2017_sfun_registry.obj
 0001:00009e90       _ProcessMexSfunctionCmdLineCall 000000018000ae90 f   fuzzy_sliding_pendubot_simulate_22_5_2017_sfun_registry.obj
 0001:0000a5e0       _CreateSimStruct           000000018000b5e0 f   fuzzy_sliding_pendubot_simulate_22_5_2017_sfun_registry.obj
 0001:0000a770       _RegNumInputPortsCB        000000018000b770 f   fuzzy_sliding_pendubot_simulate_22_5_2017_sfun_registry.obj
 0001:0000a7f0       _RegNumOutputPortsCB       000000018000b7f0 f   fuzzy_sliding_pendubot_simulate_22_5_2017_sfun_registry.obj
 0001:0000a8d0       sf_machine_load_sfunction_ptrs 000000018000b8d0 f   fuzzy_sliding_pendubot_simulate_22_5_2017_sfun_registry.obj
 0001:0000b200       getThreadLocalStorage      000000018000c200 f   sfc_mex:sfc_mex.obj
 0001:0000b240       releaseThreadLocalStorage  000000018000c240 f   sfc_mex:sfc_mex.obj
 0001:0000b250       SNPRINTF_WRAPPER           000000018000c250 f   sfc_mex:sfc_mex.obj
 0001:0000b270       convert_dims_to_string     000000018000c270 f   sfc_mex:sfc_mex.obj
 0001:0000b490       is_real_T_equal_to_double  000000018000c490 f   sfc_mex:sfc_mex.obj
 0001:0000b4b0       is_real32_T_equal_to_double 000000018000c4b0 f   sfc_mex:sfc_mex.obj
 0001:0000b4c0       is_mxLogical_equal_to_double 000000018000c4c0 f   sfc_mex:sfc_mex.obj
 0001:0000b4e0       is_int8_T_equal_to_double  000000018000c4e0 f   sfc_mex:sfc_mex.obj
 0001:0000b500       is_uint8_T_equal_to_double 000000018000c500 f   sfc_mex:sfc_mex.obj
 0001:0000b520       is_int16_T_equal_to_double 000000018000c520 f   sfc_mex:sfc_mex.obj
 0001:0000b540       is_uint16_T_equal_to_double 000000018000c540 f   sfc_mex:sfc_mex.obj
 0001:0000b560       is_int32_T_equal_to_double 000000018000c560 f   sfc_mex:sfc_mex.obj
 0001:0000b580       is_uint32_T_equal_to_double 000000018000c580 f   sfc_mex:sfc_mex.obj
 0001:0000b5a0       is_char_T_equal_to_double  000000018000c5a0 f   sfc_mex:sfc_mex.obj
 0001:0000b5c0       sf_zero_numeric_value      000000018000c5c0 f   sfc_mex:sfc_mex.obj
 0001:0000b5f0       sf_error_append_debugger_context_if_available 000000018000c5f0 f   sfc_mex:sfc_mex.obj
 0001:0000b6c0       sf_mex_get_error_message_for_write 000000018000c6c0 f   sfc_mex:sfc_mex.obj
 0001:0000b6f0       replace_single_quotes_by_doubled_quotes 000000018000c6f0 f   sfc_mex:sfc_mex.obj
 0001:0000b930       sf_mex_get_formatted_error_string 000000018000c930 f   sfc_mex:sfc_mex.obj
 0001:0000beb0       sf_mex_destroy_array       000000018000ceb0 f   sfc_mex:sfc_mex.obj
 0001:0000c240       sfrtAddSize                000000018000d240 f   sfc_mex:sfc_mex.obj
 0001:0000c300       sfrtGenSizeString          000000018000d300 f   sfc_mex:sfc_mex.obj
 0001:0000c370       sfIsProperVector           000000018000d370 f   sfc_mex:sfc_mex.obj
 0001:0000c3a0       sfIsRowVector              000000018000d3a0 f   sfc_mex:sfc_mex.obj
 0001:0000c4e0       sf_ExtractMessageId        000000018000d4e0 f   sfc_mex:sfc_mex.obj
 0001:0000c7c0       sf_mex_err                 000000018000d7c0 f   sfc_mex:sfc_mex.obj
 0001:0000c870       sf_error_dimension_out_of_bound 000000018000d870 f   sfc_mex:sfc_mex.obj
 0001:0000c930       sf_mex_check_and_set_actual_dimensions 000000018000d930 f   sfc_mex:sfc_mex.obj
 0001:0000cb10       sf_mex_check_complex       000000018000db10 f   sfc_mex:sfc_mex.obj
 0001:0000cba0       sf_mex_check_sparse        000000018000dba0 f   sfc_mex:sfc_mex.obj
 0001:0000cc00       sf_mex_check_numerictype   000000018000dc00 f   sfc_mex:sfc_mex.obj
 0001:0000cd90       sf_mex_check_fimath        000000018000dd90 f   sfc_mex:sfc_mex.obj
 0001:0000d940       size_mismatch_error        000000018000e940 f   sfc_mex:sfc_mex.obj
 0001:0000e3e0       check_array_dimensions     000000018000f3e0 f   sfc_mex:sfc_mex.obj
 0001:0000e450       check_input_mxarray        000000018000f450 f   sfc_mex:sfc_mex.obj
 0001:0000eb90       sf_numeric_value_to_double 000000018000fb90 f   sfc_mex:sfc_mex.obj
 0001:0000ebe0       ml_generic_out_of_bounds_check 000000018000fbe0 f   sfc_mex:sfc_mex.obj
 0001:0000edb0       ml_get_element_value_from_array 000000018000fdb0 f   sfc_mex:sfc_mex.obj
 0001:0000f150       _ml_generic_castability_check 0000000180010150 f   sfc_mex:sfc_mex.obj
 0001:0000feb0       ml_generic_castability_check 0000000180010eb0 f   sfc_mex:sfc_mex.obj
 0001:0000ff50       ml_check_mx_array_for_single_castability 0000000180010f50 f   sfc_mex:sfc_mex.obj
 0001:0000fff0       ml_check_mx_array_for_logical_castability 0000000180010ff0 f   sfc_mex:sfc_mex.obj
 0001:00010090       ml_check_mx_array_for_int8_castability 0000000180011090 f   sfc_mex:sfc_mex.obj
 0001:00010140       ml_check_mx_array_for_uint8_castability 0000000180011140 f   sfc_mex:sfc_mex.obj
 0001:000101a0       ml_check_mx_array_for_int16_castability 00000001800111a0 f   sfc_mex:sfc_mex.obj
 0001:00010200       ml_check_mx_array_for_uint16_castability 0000000180011200 f   sfc_mex:sfc_mex.obj
 0001:00010260       ml_check_mx_array_for_int32_castability 0000000180011260 f   sfc_mex:sfc_mex.obj
 0001:000102c0       ml_check_mx_array_for_uint32_castability 00000001800112c0 f   sfc_mex:sfc_mex.obj
 0001:00010320       ml_check_mx_array_for_castability 0000000180011320 f   sfc_mex:sfc_mex.obj
 0001:00010c50       set_data_value             0000000180011c50 f   sfc_mex:sfc_mex.obj
 0001:00010fc0       get_data_value             0000000180011fc0 f   sfc_mex:sfc_mex.obj
 0001:000110d0       get_next_element_address   00000001800120d0 f   sfc_mex:sfc_mex.obj
 0001:000111a0       sf_normalize_index         00000001800121a0 f   sfc_mex:sfc_mex.obj
 0001:00011530       ml_array_index_bound_check 0000000180012530 f   sfc_mex:sfc_mex.obj
 0001:00012050       mx_value                   0000000180013050 f   sfc_mex:sfc_mex.obj
 0001:000120a0       sf_create_numeric_array    00000001800130a0 f   sfc_mex:sfc_mex.obj
 0001:00012140       sf_mex_assign_to_mx_array  0000000180013140 f   sfc_mex:sfc_mex.obj
 0001:00012490       assign_from_mx_array       0000000180013490 f   sfc_mex:sfc_mex.obj
 0001:00012cc0       sf_mex_import_v            0000000180013cc0 f   sfc_mex:sfc_mex.obj
 0001:000133c0       get_machine_and_chart_file_number 00000001800143c0 f   sfc_mex:sfc_sf.obj
 0001:000134b0       get_sfun_block_specialization 00000001800144b0 f   sfc_mex:sfc_sf.obj
 0001:00013560       call_sf_machine_global_method_dispatcher 0000000180014560 f   sfc_mex:sfc_sf.obj
 0001:000137b0       mdl_zeroCrossings_processing 00000001800147b0 f   sfc_mex:sfc_sf.obj
 0001:00013880       mdl_derivatives_processing 0000000180014880 f   sfc_mex:sfc_sf.obj
 0001:00013b40       mdl_outputs_continuous_legacy 0000000180014b40 f   sfc_mex:sfc_sf.obj
 0001:00013bc0       mdl_outputs_processing     0000000180014bc0 f   sfc_mex:sfc_sf.obj
 0001:00013e30       mdl_enable_processing      0000000180014e30 f   sfc_mex:sfc_sf.obj
 0001:00013f00       mdl_disable_processing     0000000180014f00 f   sfc_mex:sfc_sf.obj
 0001:00014c70       sf_call_output_fcn_enable_disable 0000000180015c70 f   sfc_mex:sfc_sf.obj
 0001:00014ef0       set_dwork_information_from_mx_array 0000000180015ef0 f   sfc_mex:sfc_sf.obj
 0001:000157b0       ptr2mxStruct               00000001800167b0 f   sfc_mex:sfc_sf.obj
 0001:00015ac0       SNPRINTF_WRAPPER           0000000180016ac0 f   sfc_debug:sfcdebug.obj
 0001:00015ae0       sf_debug_chart_instance_initialized_quick 0000000180016ae0 f   sfc_debug:sfcdebug.obj
 0001:00015af0       sf_debug_chart_instance_initialized 0000000180016af0 f   sfc_debug:sfcdebug.obj
 0001:00015c90       sfrtAddSize                0000000180016c90 f   sfc_debug:sfcdebug.obj
 0001:00015d50       sfrtGenSizeString          0000000180016d50 f   sfc_debug:sfcdebug.obj
 0001:00016460       fill_single_message_info   0000000180017460 f   sfc_debug:sfcdebug.obj
 0001:00016620       sf_debug_sim_status_listener 0000000180017620 f   sfc_debug:sfcdebug.obj
 0001:00016b90       sf_debug_form_mask_bits    0000000180017b90 f   sfc_debug:sfcdebug.obj
 0001:00016bd0       sf_debug_form_sf_data_type_offsets 0000000180017bd0 f   sfc_debug:sfcdebug.obj
 0001:00016c90       sf_debug_free_all          0000000180017c90 f   sfc_debug:sfcdebug.obj
 0001:00016e40       sf_debug_append_debugger_context 0000000180017e40 f   sfc_debug:sfcdebug.obj
 0001:00016fe0       sf_debug_update_always_honor_breakpoints 0000000180017fe0 f   sfc_debug:sfcdebug.obj
 0001:000171b0       local_strdup               00000001800181b0 f   sfc_debug:sfcdebug.obj
 0001:00018090       sf_debug_em_terminate      0000000180019090 f   sfc_debug:sfcdebug.obj
 0001:000180d0       sf_debug_push_eml_function 00000001800190d0 f   sfc_debug:sfcdebug.obj
 0001:00018170       sf_debug_pop_eml_function  0000000180019170 f   sfc_debug:sfcdebug.obj
 0001:00018e70       sf_debug_get_machine_number_from_id_or_name 0000000180019e70 f   sfc_debug:sfcdebug.obj
 0001:00018fc0       sf_debug_get_chart_number_from_id 0000000180019fc0 f   sfc_debug:sfcdebug.obj
 0001:00019d60       sf_debug_transfer_control_to_debugger_GUI 000000018001ad60 f   sfc_debug:sfcdebug.obj
 0001:0001acf0       sf_debug_scripts_rehash    000000018001bcf0 f   sfc_debug:sfcdebug.obj
 0001:0001af30       sf_debug_get_script_line_count 000000018001bf30 f   sfc_debug:sfcdebug.obj
 0001:0001b860       cv_eml_state_cvId          000000018001c860 f   sfc_debug:sfcdebug.obj
 0001:0001b8d0       cv_eml_trans_cvId          000000018001c8d0 f   sfc_debug:sfcdebug.obj
 0001:0001cc60       sf_debug_data_array_bounds_error 000000018001dc60 f   sfc_debug:sfcdebug.obj
 0001:0001d090       eml_debug_runtime_error_doclink 000000018001e090 f   sfc_debug:sfcdebug.obj
 0001:0001d1f0       sf_debug_runtime_error     000000018001e1f0 f   sfc_debug:sfcdebug.obj
 0001:0001d260       sf_debug_matlab_error      000000018001e260 f   sfc_debug:sfcdebug.obj
 0001:0001dba0       sf_debug_data_value_error  000000018001eba0 f   sfc_debug:sfcdebug.obj
 0001:0001e4a0       sf_debug_data_loss_error   000000018001f4a0 f   sfc_debug:sfcdebug.obj
 0001:0001f430       call_cv_range_check        0000000180020430 f   sfc_debug:sfcdebug.obj
 0001:0001fc00       sf_debug_invoke_cycle_detection_code 0000000180020c00 f   sfc_debug:sfcdebug.obj
 0001:00020a80       sf_reset_debug_info_struct 0000000180021a80 f   sfc_debug:sfcdebug.obj
 0001:000212e0       cv_script_cvId             00000001800222e0 f   sfc_debug:sfcdebug.obj
 0001:00022040       sfc_api_chart_visible      0000000180023040 f   sfc_debug:sfc_api.obj
 0001:000220c0       sfc_api_active_instance    00000001800230c0 f   sfc_debug:sfc_api.obj
 0001:00022140       sfc_api_machine_load       0000000180023140 f   sfc_debug:sfc_api.obj
 0001:00022210       sfc_api_debugger_alive     0000000180023210 f   sfc_debug:sfc_api.obj
 0001:00022220       sfc_api_go                 0000000180023220 f   sfc_debug:sfc_api.obj
 0001:00022230       sfc_api_step_over          0000000180023230 f   sfc_debug:sfc_api.obj
 0001:00022240       sfc_api_step_out           0000000180023240 f   sfc_debug:sfc_api.obj
 0001:00022250       sfc_api_resume             0000000180023250 f   sfc_debug:sfc_api.obj
 0001:00022260       sfc_api_break              0000000180023260 f   sfc_debug:sfc_api.obj
 0001:00022270       sfc_api_stop_debugging     0000000180023270 f   sfc_debug:sfc_api.obj
 0001:000222c0       sfc_api_is_cycle_detected  00000001800232c0 f   sfc_debug:sfc_api.obj
 0001:00022310       sfc_api_is_array_bounds_detected 0000000180023310 f   sfc_debug:sfc_api.obj
 0001:00022360       sfc_api_set_disable_all_breakpoints 0000000180023360 f   sfc_debug:sfc_api.obj
 0001:000223d0       sfc_api_disable_all_breakpoints_and_go 00000001800233d0 f   sfc_debug:sfc_api.obj
 0001:000223e0       sfc_api_close              00000001800233e0 f   sfc_debug:sfc_api.obj
 0001:000223f0       sfc_api_browse_data        00000001800233f0 f   sfc_debug:sfc_api.obj
 0001:00022460       sfc_api_watch_data         0000000180023460 f   sfc_debug:sfc_api.obj
 0001:00022560       sfc_api_extract_message_post_receive_info 0000000180023560 f   sfc_debug:sfc_api.obj
 0001:00022580       sfc_api_assign_data        0000000180023580 f   sfc_debug:sfc_api.obj
 0001:00022620       sfc_api_whos               0000000180023620 f   sfc_debug:sfc_api.obj
 0001:000226b0       sfc_api_get_consistency_info 00000001800236b0 f   sfc_debug:sfc_api.obj
 0001:000226c0       sfc_api_browse_trace       00000001800236c0 f   sfc_debug:sfc_api.obj
 0001:000226d0       sfc_api_break_on_chart_entry 00000001800236d0 f   sfc_debug:sfc_api.obj
 0001:000226f0       sfc_api_break_on_event_broadcast 00000001800236f0 f   sfc_debug:sfc_api.obj
 0001:00022710       sfc_api_break_on_state_entry 0000000180023710 f   sfc_debug:sfc_api.obj
 0001:00022730       sfc_api_set_watch          0000000180023730 f   sfc_debug:sfc_api.obj
 0001:000227d0       sfc_api_set_breakpoints    00000001800237d0 f   sfc_debug:sfc_api.obj
 0001:00022870       sfc_api_set_eml_breakpoints 0000000180023870 f   sfc_debug:sfc_api.obj
 0001:000228f0       sfc_api_set_script_breakpoints 00000001800238f0 f   sfc_debug:sfc_api.obj
 0001:00022940       sfc_api_add_script_breakpoints 0000000180023940 f   sfc_debug:sfc_api.obj
 0001:00022990       sfc_api_clear_script_breakpoints 0000000180023990 f   sfc_debug:sfc_api.obj
 0001:000229e0       sfc_api_query_script_breakpoints 00000001800239e0 f   sfc_debug:sfc_api.obj
 0001:00022a40       sfc_api_get_script_id      0000000180023a40 f   sfc_debug:sfc_api.obj
 0001:00022b00       sfc_api_get_active_states  0000000180023b00 f   sfc_debug:sfc_api.obj
 0001:00022b80       sfc_api_break_between_times 0000000180023b80 f   sfc_debug:sfc_api.obj
 0001:00022be0       sfc_api_get_instance_handle 0000000180023be0 f   sfc_debug:sfc_api.obj
 0001:00022c90       sfc_api_set_animation      0000000180023c90 f   sfc_debug:sfc_api.obj
 0001:00022ce0       sfc_api_select_chart       0000000180023ce0 f   sfc_debug:sfc_api.obj
 0001:00022d40       sfc_api_select_charts      0000000180023d40 f   sfc_debug:sfc_api.obj
 0001:00022d70       sfc_api_cycle_detection_check 0000000180023d70 f   sfc_debug:sfc_api.obj
 0001:00022dc0       sfc_api_data_range_check   0000000180023dc0 f   sfc_debug:sfc_api.obj
 0001:00022e10       sfc_api_transition_conflict_check 0000000180023e10 f   sfc_debug:sfc_api.obj
 0001:00022e60       sfc_api_state_consistency_check 0000000180023e60 f   sfc_debug:sfc_api.obj
 0001:00022eb0       sfc_api_set_instance_cv_ids 0000000180023eb0 f   sfc_debug:sfc_api.obj
 0001:00022fc0       sfc_api_set_script_cv_ids  0000000180023fc0 f   sfc_debug:sfc_api.obj
 0001:00023070       sfc_api_get_current_machine_id 0000000180024070 f   sfc_debug:sfc_api.obj
 0001:000230a0       sfc_api_get_current_machine_number 00000001800240a0 f   sfc_debug:sfc_api.obj
 0001:000230d0       sfc_api_get_current_chart_number 00000001800240d0 f   sfc_debug:sfc_api.obj
 0001:00023100       sfc_api_get_current_instance_number 0000000180024100 f   sfc_debug:sfc_api.obj
 0001:00023130       sfc_api_get_current_instance_handle 0000000180024130 f   sfc_debug:sfc_api.obj
 0001:00023150       sfc_api_get_current_is_minor_time_step 0000000180024150 f   sfc_debug:sfc_api.obj
 0001:00023180       sfc_api_get_current_machine_name 0000000180024180 f   sfc_debug:sfc_api.obj
 0001:000231a0       sfc_api_get_current_chart_id 00000001800241a0 f   sfc_debug:sfc_api.obj
 0001:000231d0       sfc_api_get_current_object_type 00000001800241d0 f   sfc_debug:sfc_api.obj
 0001:00023200       sfc_api_get_current_event_type 0000000180024200 f   sfc_debug:sfc_api.obj
 0001:00023230       sfc_api_get_current_object_id 0000000180024230 f   sfc_debug:sfc_api.obj
 0001:00023260       sfc_get_current_active_event_type 0000000180024260 f   sfc_debug:sfc_api.obj
 0001:00023290       sfc_api_get_current_active_event_id 0000000180024290 f   sfc_debug:sfc_api.obj
 0001:000232c0       sfc_api_get_current_simulation_time 00000001800242c0 f   sfc_debug:sfc_api.obj
 0001:000232e0       sfc_get_current_tag_type   00000001800242e0 f   sfc_debug:sfc_api.obj
 0001:00023310       sfc_get_current_coverage_percentage 0000000180024310 f   sfc_debug:sfc_api.obj
 0001:00023330       sfc_get_current_statement_context 0000000180024330 f   sfc_debug:sfc_api.obj
 0001:00023350       sfc_get_current_optional_integer 0000000180024350 f   sfc_debug:sfc_api.obj
 0001:00023380       sfc_get_current_statement_info 0000000180024380 f   sfc_debug:sfc_api.obj
 0001:00023420       sfc_api_get                0000000180024420 f   sfc_debug:sfc_api.obj
 0001:00024090       sf_debug_sm_fill_state_activity_data 0000000180025090 f   sfc_debug:sfdb_animation.obj
 0001:00026990       void_ptr_stack_vector_free_total 0000000180027990 f   sfc_debug:sfdb_data_browse.obj
 0001:00026a20       sf_debug_st_terminate_machine 0000000180027a20 f   sfc_debug:sfdb_data_browse.obj
 0001:00026a60       sf_debug_st_terminate_instance 0000000180027a60 f   sfc_debug:sfdb_data_browse.obj
 0001:00026e10       push_on_to_void_ptr_stack  0000000180027e10 f   sfc_debug:sfdb_data_browse.obj
 0001:00026fa0       pop_from_void_ptr_stack    0000000180027fa0 f   sfc_debug:sfdb_data_browse.obj
 0001:000270d0       sf_debug_st_get_data_value 00000001800280d0 f   sfc_debug:sfdb_data_browse.obj
 0001:00027660       mx_value                   0000000180028660 f   sfc_debug:sfdb_data_browse.obj
 0001:000276a0       sf_debug_st_fill_data_struct 00000001800286a0 f   sfc_debug:sfdb_data_browse.obj
 0001:000279e0       data_type_format_strings   00000001800289e0 f   sfc_debug:sfdb_data_browse.obj
 0001:00027a90       sf_debug_st_fill_data      0000000180028a90 f   sfc_debug:sfdb_data_browse.obj
 0001:000287e0       sf_debug_hm_get_simulink_handle 00000001800297e0 f   sfc_debug:sfdb_handle_management.obj
 0001:000292e0       sf_debug_hm_initialize_globals 000000018002a2e0 f   sfc_debug:sfdb_handle_management.obj
 0001:000293e0       sf_debug_hm_get_machine_debug_flag 000000018002a3e0 f   sfc_debug:sfdb_handle_management.obj
 0001:00029550       sf_debug_hm_get_machine_id 000000018002a550 f   sfc_debug:sfdb_handle_management.obj
 0001:00029670       sf_debug_hm_get_chart_id   000000018002a670 f   sfc_debug:sfdb_handle_management.obj
 0001:00029810       sf_debug_hm_register_executing_SFunction 000000018002a810 f   sfc_debug:sfdb_handle_management.obj
 0001:00029ba0       sf_debug_hm_form_object_boolean_properties 000000018002aba0 f   sfc_debug:sfdb_handle_management.obj
 0001:00029e70       sf_debug_hm_form_object_properties 000000018002ae70 f   sfc_debug:sfdb_handle_management.obj
 0001:0002a0b0       sf_debug_hm_terminate_charts 000000018002b0b0 f   sfc_debug:sfdb_handle_management.obj
 0001:0002a810       sf_debug_hm_terminate_machines 000000018002b810 f   sfc_debug:sfdb_handle_management.obj
 0001:0002c410       sf_debug_ss_copy_dimension 000000018002d410 f   sfc_debug:sfdb_symbol_scope.obj
 0001:0002c4d0       sf_debug_ss_get_number_elements 000000018002d4d0 f   sfc_debug:sfdb_symbol_scope.obj
 0001:0002c4f0       sf_debug_ss_fill_data_struct 000000018002d4f0 f   sfc_debug:sfdb_symbol_scope.obj
 0001:0002c840       sf_debug_ss_reset_data_info 000000018002d840 f   sfc_debug:sfdb_symbol_scope.obj
 0001:0002c8a0       sf_debug_fill_data_info_by_symbol_scope_entry 000000018002d8a0 f   sfc_debug:sfdb_symbol_scope.obj
 0001:0002c960       sf_debug_fill_data_info_by_data_vector 000000018002d960 f   sfc_debug:sfdb_symbol_scope.obj
 0001:0002cbb0       get_data_info_helper       000000018002dbb0 f   sfc_debug:sfdb_symbol_scope.obj
 0001:0002ccb0       sf_debug_ss_get_data_info  000000018002dcb0 f   sfc_debug:sfdb_symbol_scope.obj
 0001:0002cee0       sf_debug_select_mex_function 000000018002dee0 f   sfc_debug:sfdb_symbol_scope.obj
 0001:0002cf10       sf_debug_is_dyn_matrix_initialized 000000018002df10 f   sfc_debug:sfdb_symbol_scope.obj
 0001:0002cf30       sf_debug_ss_set_data_value_try 000000018002df30 f   sfc_debug:sfdb_symbol_scope.obj
 0001:0002d100       sf_debug_ss_get_data_value 000000018002e100 f   sfc_debug:sfdb_symbol_scope.obj
 0001:0002d870       sf_debug_ss_data_bytes_string 000000018002e870 f   sfc_debug:sfdb_symbol_scope.obj
 0001:0002d920       sf_debug_ss_data_class_string 000000018002e920 f   sfc_debug:sfdb_symbol_scope.obj
 0001:0002dcb0       sf_debug_ss_data_size_string 000000018002ecb0 f   sfc_debug:sfdb_symbol_scope.obj
 0001:0002dd90       sf_debug_ss_data_create_data_info_struct 000000018002ed90 f   sfc_debug:sfdb_symbol_scope.obj
 0001:0002e060       sf_debug_ss_data_create_name_value_pair 000000018002f060 f   sfc_debug:sfdb_symbol_scope.obj
 0001:0002e100       sf_debug_ss_data_get_whos_info 000000018002f100 f   sfc_debug:sfdb_symbol_scope.obj
 0001:0002e110       same_named_data_in_data_array 000000018002f110 f   sfc_debug:sfdb_symbol_scope.obj
 0001:0002f9a0       sf_debug_cc_terminate_chart 00000001800309a0 f   sfc_debug:sfdb_coverage.obj
 0001:0002fd40       sf_debug_cc_terminate_instance 0000000180030d40 f   sfc_debug:sfdb_coverage.obj
 0001:00030930       sf_debug_cc_mark_object_if_needed 0000000180031930 f   sfc_debug:sfdb_coverage.obj
 0001:00031230       sf_debug_bm_initialize_eml 0000000180032230 f   sfc_debug:sfdb_breakpoints.obj
 0001:00032370       sf_debug_bm_map_debug_tag_to_breakpoint_tag 0000000180033370 f   sfc_debug:sfdb_breakpoints.obj
 0001:00032450       sf_debug_bm_is_a_eml_breakpoint_impl 0000000180033450 f   sfc_debug:sfdb_breakpoints.obj
 0001:00033f90       sf_debug_sc_push_on_error_stack 0000000180034f90 f   sfc_debug:sfdb_state_consistency.obj
 0001:000340c0       sf_debug_sc_reset_error_stack 00000001800350c0 f   sfc_debug:sfdb_state_consistency.obj
 0001:00034250       sf_debug_sc_is_state_inconsistent 0000000180035250 f   sfc_debug:sfdb_state_consistency.obj
 0001:00034550       sf_debug_sc_fill_consistency_info 0000000180035550 f   sfc_debug:sfdb_state_consistency.obj
 0001:00034b30       void_assertion_fcn         0000000180035b30 f   sfc_debug:sfdb_call_stack.obj
 0001:000350b0       sf_debug_tm_fill_local_trace 00000001800360b0 f   sfc_debug:sfdb_call_stack.obj
 0001:00035680       sf_debug_cd_terminate_instance 0000000180036680 f   sfc_debug:sfdb_cycle_detection.obj
 0001:000356e0       sf_debug_cd_free_checksum_stack 00000001800366e0 f   sfc_debug:sfdb_cycle_detection.obj
 0001:00035730       sf_debug_cd_reset_pack_strings 0000000180036730 f   sfc_debug:sfdb_cycle_detection.obj
 0001:00035df0       md5file_clear              0000000180036df0 f   sfc_debug:ckmd5.obj
 0001:00035e20       Encode                     0000000180036e20 f   sfc_debug:ckmd5.obj
 0001:00035e70       Decode                     0000000180036e70 f   sfc_debug:ckmd5.obj
 0001:00035f10       MD5Transform               0000000180036f10 f   sfc_debug:ckmd5.obj
 0001:00036760       md5file_addn               0000000180037760 f   sfc_debug:ckmd5.obj
 0001:00036830       md5file_hash               0000000180037830 f   sfc_debug:ckmd5.obj
 0001:00036d18       pre_c_init                 0000000180037d18 f   MSVCRT:crtdll.obj
 0001:00036fd4       __DllMainCRTStartup        0000000180037fd4 f   MSVCRT:crtdll.obj
 0001:000376e0       __DllMainCRTStartup$filt$0 00000001800386e0 f   MSVCRT:crtdll.obj
 0001:00037710       __DllMainCRTStartup$fin$1  0000000180038710 f   MSVCRT:crtdll.obj
 0001:0003772a       _onexit$fin$0              000000018003872a f   MSVCRT:atonexit.obj
 0001:00037750       _IsNonwritableInCurrentImage$filt$0 0000000180038750 f   MSVCRT:pesect.obj
